
ctarget:     file format elf64-x86-64


Disassembly of section .init:

0000000000400bc8 <_init>:
  400bc8:	48 83 ec 08          	sub    $0x8,%rsp
  400bcc:	48 8b 05 25 34 20 00 	mov    0x203425(%rip),%rax        # 603ff8 <__gmon_start__>
  400bd3:	48 85 c0             	test   %rax,%rax
  400bd6:	74 05                	je     400bdd <_init+0x15>
  400bd8:	e8 33 01 00 00       	callq  400d10 <__gmon_start__@plt>
  400bdd:	48 83 c4 08          	add    $0x8,%rsp
  400be1:	c3                   	retq   

Disassembly of section .plt:

0000000000400bf0 <.plt>:
  400bf0:	ff 35 12 34 20 00    	pushq  0x203412(%rip)        # 604008 <_GLOBAL_OFFSET_TABLE_+0x8>
  400bf6:	ff 25 14 34 20 00    	jmpq   *0x203414(%rip)        # 604010 <_GLOBAL_OFFSET_TABLE_+0x10>
  400bfc:	0f 1f 40 00          	nopl   0x0(%rax)

0000000000400c00 <strcasecmp@plt>:
  400c00:	ff 25 12 34 20 00    	jmpq   *0x203412(%rip)        # 604018 <strcasecmp@GLIBC_2.2.5>
  400c06:	68 00 00 00 00       	pushq  $0x0
  400c0b:	e9 e0 ff ff ff       	jmpq   400bf0 <.plt>

0000000000400c10 <__errno_location@plt>:
  400c10:	ff 25 0a 34 20 00    	jmpq   *0x20340a(%rip)        # 604020 <__errno_location@GLIBC_2.2.5>
  400c16:	68 01 00 00 00       	pushq  $0x1
  400c1b:	e9 d0 ff ff ff       	jmpq   400bf0 <.plt>

0000000000400c20 <srandom@plt>:
  400c20:	ff 25 02 34 20 00    	jmpq   *0x203402(%rip)        # 604028 <srandom@GLIBC_2.2.5>
  400c26:	68 02 00 00 00       	pushq  $0x2
  400c2b:	e9 c0 ff ff ff       	jmpq   400bf0 <.plt>

0000000000400c30 <strncmp@plt>:
  400c30:	ff 25 fa 33 20 00    	jmpq   *0x2033fa(%rip)        # 604030 <strncmp@GLIBC_2.2.5>
  400c36:	68 03 00 00 00       	pushq  $0x3
  400c3b:	e9 b0 ff ff ff       	jmpq   400bf0 <.plt>

0000000000400c40 <strcpy@plt>:
  400c40:	ff 25 f2 33 20 00    	jmpq   *0x2033f2(%rip)        # 604038 <strcpy@GLIBC_2.2.5>
  400c46:	68 04 00 00 00       	pushq  $0x4
  400c4b:	e9 a0 ff ff ff       	jmpq   400bf0 <.plt>

0000000000400c50 <puts@plt>:
  400c50:	ff 25 ea 33 20 00    	jmpq   *0x2033ea(%rip)        # 604040 <puts@GLIBC_2.2.5>
  400c56:	68 05 00 00 00       	pushq  $0x5
  400c5b:	e9 90 ff ff ff       	jmpq   400bf0 <.plt>

0000000000400c60 <write@plt>:
  400c60:	ff 25 e2 33 20 00    	jmpq   *0x2033e2(%rip)        # 604048 <write@GLIBC_2.2.5>
  400c66:	68 06 00 00 00       	pushq  $0x6
  400c6b:	e9 80 ff ff ff       	jmpq   400bf0 <.plt>

0000000000400c70 <mmap@plt>:
  400c70:	ff 25 da 33 20 00    	jmpq   *0x2033da(%rip)        # 604050 <mmap@GLIBC_2.2.5>
  400c76:	68 07 00 00 00       	pushq  $0x7
  400c7b:	e9 70 ff ff ff       	jmpq   400bf0 <.plt>

0000000000400c80 <printf@plt>:
  400c80:	ff 25 d2 33 20 00    	jmpq   *0x2033d2(%rip)        # 604058 <printf@GLIBC_2.2.5>
  400c86:	68 08 00 00 00       	pushq  $0x8
  400c8b:	e9 60 ff ff ff       	jmpq   400bf0 <.plt>

0000000000400c90 <memset@plt>:
  400c90:	ff 25 ca 33 20 00    	jmpq   *0x2033ca(%rip)        # 604060 <memset@GLIBC_2.2.5>
  400c96:	68 09 00 00 00       	pushq  $0x9
  400c9b:	e9 50 ff ff ff       	jmpq   400bf0 <.plt>

0000000000400ca0 <alarm@plt>:
  400ca0:	ff 25 c2 33 20 00    	jmpq   *0x2033c2(%rip)        # 604068 <alarm@GLIBC_2.2.5>
  400ca6:	68 0a 00 00 00       	pushq  $0xa
  400cab:	e9 40 ff ff ff       	jmpq   400bf0 <.plt>

0000000000400cb0 <close@plt>:
  400cb0:	ff 25 ba 33 20 00    	jmpq   *0x2033ba(%rip)        # 604070 <close@GLIBC_2.2.5>
  400cb6:	68 0b 00 00 00       	pushq  $0xb
  400cbb:	e9 30 ff ff ff       	jmpq   400bf0 <.plt>

0000000000400cc0 <read@plt>:
  400cc0:	ff 25 b2 33 20 00    	jmpq   *0x2033b2(%rip)        # 604078 <read@GLIBC_2.2.5>
  400cc6:	68 0c 00 00 00       	pushq  $0xc
  400ccb:	e9 20 ff ff ff       	jmpq   400bf0 <.plt>

0000000000400cd0 <__libc_start_main@plt>:
  400cd0:	ff 25 aa 33 20 00    	jmpq   *0x2033aa(%rip)        # 604080 <__libc_start_main@GLIBC_2.2.5>
  400cd6:	68 0d 00 00 00       	pushq  $0xd
  400cdb:	e9 10 ff ff ff       	jmpq   400bf0 <.plt>

0000000000400ce0 <signal@plt>:
  400ce0:	ff 25 a2 33 20 00    	jmpq   *0x2033a2(%rip)        # 604088 <signal@GLIBC_2.2.5>
  400ce6:	68 0e 00 00 00       	pushq  $0xe
  400ceb:	e9 00 ff ff ff       	jmpq   400bf0 <.plt>

0000000000400cf0 <gethostbyname@plt>:
  400cf0:	ff 25 9a 33 20 00    	jmpq   *0x20339a(%rip)        # 604090 <gethostbyname@GLIBC_2.2.5>
  400cf6:	68 0f 00 00 00       	pushq  $0xf
  400cfb:	e9 f0 fe ff ff       	jmpq   400bf0 <.plt>

0000000000400d00 <fprintf@plt>:
  400d00:	ff 25 92 33 20 00    	jmpq   *0x203392(%rip)        # 604098 <fprintf@GLIBC_2.2.5>
  400d06:	68 10 00 00 00       	pushq  $0x10
  400d0b:	e9 e0 fe ff ff       	jmpq   400bf0 <.plt>

0000000000400d10 <__gmon_start__@plt>:
  400d10:	ff 25 8a 33 20 00    	jmpq   *0x20338a(%rip)        # 6040a0 <__gmon_start__>
  400d16:	68 11 00 00 00       	pushq  $0x11
  400d1b:	e9 d0 fe ff ff       	jmpq   400bf0 <.plt>

0000000000400d20 <strtol@plt>:
  400d20:	ff 25 82 33 20 00    	jmpq   *0x203382(%rip)        # 6040a8 <strtol@GLIBC_2.2.5>
  400d26:	68 12 00 00 00       	pushq  $0x12
  400d2b:	e9 c0 fe ff ff       	jmpq   400bf0 <.plt>

0000000000400d30 <memcpy@plt>:
  400d30:	ff 25 7a 33 20 00    	jmpq   *0x20337a(%rip)        # 6040b0 <memcpy@GLIBC_2.14>
  400d36:	68 13 00 00 00       	pushq  $0x13
  400d3b:	e9 b0 fe ff ff       	jmpq   400bf0 <.plt>

0000000000400d40 <time@plt>:
  400d40:	ff 25 72 33 20 00    	jmpq   *0x203372(%rip)        # 6040b8 <time@GLIBC_2.2.5>
  400d46:	68 14 00 00 00       	pushq  $0x14
  400d4b:	e9 a0 fe ff ff       	jmpq   400bf0 <.plt>

0000000000400d50 <random@plt>:
  400d50:	ff 25 6a 33 20 00    	jmpq   *0x20336a(%rip)        # 6040c0 <random@GLIBC_2.2.5>
  400d56:	68 15 00 00 00       	pushq  $0x15
  400d5b:	e9 90 fe ff ff       	jmpq   400bf0 <.plt>

0000000000400d60 <_IO_getc@plt>:
  400d60:	ff 25 62 33 20 00    	jmpq   *0x203362(%rip)        # 6040c8 <_IO_getc@GLIBC_2.2.5>
  400d66:	68 16 00 00 00       	pushq  $0x16
  400d6b:	e9 80 fe ff ff       	jmpq   400bf0 <.plt>

0000000000400d70 <__isoc99_sscanf@plt>:
  400d70:	ff 25 5a 33 20 00    	jmpq   *0x20335a(%rip)        # 6040d0 <__isoc99_sscanf@GLIBC_2.7>
  400d76:	68 17 00 00 00       	pushq  $0x17
  400d7b:	e9 70 fe ff ff       	jmpq   400bf0 <.plt>

0000000000400d80 <munmap@plt>:
  400d80:	ff 25 52 33 20 00    	jmpq   *0x203352(%rip)        # 6040d8 <munmap@GLIBC_2.2.5>
  400d86:	68 18 00 00 00       	pushq  $0x18
  400d8b:	e9 60 fe ff ff       	jmpq   400bf0 <.plt>

0000000000400d90 <bcopy@plt>:
  400d90:	ff 25 4a 33 20 00    	jmpq   *0x20334a(%rip)        # 6040e0 <bcopy@GLIBC_2.2.5>
  400d96:	68 19 00 00 00       	pushq  $0x19
  400d9b:	e9 50 fe ff ff       	jmpq   400bf0 <.plt>

0000000000400da0 <fopen@plt>:
  400da0:	ff 25 42 33 20 00    	jmpq   *0x203342(%rip)        # 6040e8 <fopen@GLIBC_2.2.5>
  400da6:	68 1a 00 00 00       	pushq  $0x1a
  400dab:	e9 40 fe ff ff       	jmpq   400bf0 <.plt>

0000000000400db0 <getopt@plt>:
  400db0:	ff 25 3a 33 20 00    	jmpq   *0x20333a(%rip)        # 6040f0 <getopt@GLIBC_2.2.5>
  400db6:	68 1b 00 00 00       	pushq  $0x1b
  400dbb:	e9 30 fe ff ff       	jmpq   400bf0 <.plt>

0000000000400dc0 <strtoul@plt>:
  400dc0:	ff 25 32 33 20 00    	jmpq   *0x203332(%rip)        # 6040f8 <strtoul@GLIBC_2.2.5>
  400dc6:	68 1c 00 00 00       	pushq  $0x1c
  400dcb:	e9 20 fe ff ff       	jmpq   400bf0 <.plt>

0000000000400dd0 <gethostname@plt>:
  400dd0:	ff 25 2a 33 20 00    	jmpq   *0x20332a(%rip)        # 604100 <gethostname@GLIBC_2.2.5>
  400dd6:	68 1d 00 00 00       	pushq  $0x1d
  400ddb:	e9 10 fe ff ff       	jmpq   400bf0 <.plt>

0000000000400de0 <sprintf@plt>:
  400de0:	ff 25 22 33 20 00    	jmpq   *0x203322(%rip)        # 604108 <sprintf@GLIBC_2.2.5>
  400de6:	68 1e 00 00 00       	pushq  $0x1e
  400deb:	e9 00 fe ff ff       	jmpq   400bf0 <.plt>

0000000000400df0 <exit@plt>:
  400df0:	ff 25 1a 33 20 00    	jmpq   *0x20331a(%rip)        # 604110 <exit@GLIBC_2.2.5>
  400df6:	68 1f 00 00 00       	pushq  $0x1f
  400dfb:	e9 f0 fd ff ff       	jmpq   400bf0 <.plt>

0000000000400e00 <connect@plt>:
  400e00:	ff 25 12 33 20 00    	jmpq   *0x203312(%rip)        # 604118 <connect@GLIBC_2.2.5>
  400e06:	68 20 00 00 00       	pushq  $0x20
  400e0b:	e9 e0 fd ff ff       	jmpq   400bf0 <.plt>

0000000000400e10 <socket@plt>:
  400e10:	ff 25 0a 33 20 00    	jmpq   *0x20330a(%rip)        # 604120 <socket@GLIBC_2.2.5>
  400e16:	68 21 00 00 00       	pushq  $0x21
  400e1b:	e9 d0 fd ff ff       	jmpq   400bf0 <.plt>

Disassembly of section .text:

0000000000400e20 <_start>:
  400e20:	31 ed                	xor    %ebp,%ebp
  400e22:	49 89 d1             	mov    %rdx,%r9
  400e25:	5e                   	pop    %rsi
  400e26:	48 89 e2             	mov    %rsp,%rdx
  400e29:	48 83 e4 f0          	and    $0xfffffffffffffff0,%rsp
  400e2d:	50                   	push   %rax
  400e2e:	54                   	push   %rsp
  400e2f:	49 c7 c0 80 2b 40 00 	mov    $0x402b80,%r8
  400e36:	48 c7 c1 10 2b 40 00 	mov    $0x402b10,%rcx
  400e3d:	48 c7 c7 e0 10 40 00 	mov    $0x4010e0,%rdi
  400e44:	e8 87 fe ff ff       	callq  400cd0 <__libc_start_main@plt>
  400e49:	f4                   	hlt    
  400e4a:	66 0f 1f 44 00 00    	nopw   0x0(%rax,%rax,1)

0000000000400e50 <deregister_tm_clones>:
  400e50:	b8 b7 44 60 00       	mov    $0x6044b7,%eax
  400e55:	55                   	push   %rbp
  400e56:	48 2d b0 44 60 00    	sub    $0x6044b0,%rax
  400e5c:	48 83 f8 0e          	cmp    $0xe,%rax
  400e60:	48 89 e5             	mov    %rsp,%rbp
  400e63:	77 02                	ja     400e67 <deregister_tm_clones+0x17>
  400e65:	5d                   	pop    %rbp
  400e66:	c3                   	retq   
  400e67:	b8 00 00 00 00       	mov    $0x0,%eax
  400e6c:	48 85 c0             	test   %rax,%rax
  400e6f:	74 f4                	je     400e65 <deregister_tm_clones+0x15>
  400e71:	5d                   	pop    %rbp
  400e72:	bf b0 44 60 00       	mov    $0x6044b0,%edi
  400e77:	ff e0                	jmpq   *%rax
  400e79:	0f 1f 80 00 00 00 00 	nopl   0x0(%rax)

0000000000400e80 <register_tm_clones>:
  400e80:	b8 b0 44 60 00       	mov    $0x6044b0,%eax
  400e85:	55                   	push   %rbp
  400e86:	48 2d b0 44 60 00    	sub    $0x6044b0,%rax
  400e8c:	48 c1 f8 03          	sar    $0x3,%rax
  400e90:	48 89 e5             	mov    %rsp,%rbp
  400e93:	48 89 c2             	mov    %rax,%rdx
  400e96:	48 c1 ea 3f          	shr    $0x3f,%rdx
  400e9a:	48 01 d0             	add    %rdx,%rax
  400e9d:	48 d1 f8             	sar    %rax
  400ea0:	75 02                	jne    400ea4 <register_tm_clones+0x24>
  400ea2:	5d                   	pop    %rbp
  400ea3:	c3                   	retq   
  400ea4:	ba 00 00 00 00       	mov    $0x0,%edx
  400ea9:	48 85 d2             	test   %rdx,%rdx
  400eac:	74 f4                	je     400ea2 <register_tm_clones+0x22>
  400eae:	5d                   	pop    %rbp
  400eaf:	48 89 c6             	mov    %rax,%rsi
  400eb2:	bf b0 44 60 00       	mov    $0x6044b0,%edi
  400eb7:	ff e2                	jmpq   *%rdx
  400eb9:	0f 1f 80 00 00 00 00 	nopl   0x0(%rax)

0000000000400ec0 <__do_global_dtors_aux>:
  400ec0:	80 3d 11 36 20 00 00 	cmpb   $0x0,0x203611(%rip)        # 6044d8 <completed.6355>
  400ec7:	75 11                	jne    400eda <__do_global_dtors_aux+0x1a>
  400ec9:	55                   	push   %rbp
  400eca:	48 89 e5             	mov    %rsp,%rbp
  400ecd:	e8 7e ff ff ff       	callq  400e50 <deregister_tm_clones>
  400ed2:	5d                   	pop    %rbp
  400ed3:	c6 05 fe 35 20 00 01 	movb   $0x1,0x2035fe(%rip)        # 6044d8 <completed.6355>
  400eda:	f3 c3                	repz retq 
  400edc:	0f 1f 40 00          	nopl   0x0(%rax)

0000000000400ee0 <frame_dummy>:
  400ee0:	48 83 3d 38 2f 20 00 	cmpq   $0x0,0x202f38(%rip)        # 603e20 <__JCR_END__>
  400ee7:	00 
  400ee8:	74 1e                	je     400f08 <frame_dummy+0x28>
  400eea:	b8 00 00 00 00       	mov    $0x0,%eax
  400eef:	48 85 c0             	test   %rax,%rax
  400ef2:	74 14                	je     400f08 <frame_dummy+0x28>
  400ef4:	55                   	push   %rbp
  400ef5:	bf 20 3e 60 00       	mov    $0x603e20,%edi
  400efa:	48 89 e5             	mov    %rsp,%rbp
  400efd:	ff d0                	callq  *%rax
  400eff:	5d                   	pop    %rbp
  400f00:	e9 7b ff ff ff       	jmpq   400e80 <register_tm_clones>
  400f05:	0f 1f 00             	nopl   (%rax)
  400f08:	e9 73 ff ff ff       	jmpq   400e80 <register_tm_clones>
  400f0d:	0f 1f 00             	nopl   (%rax)

0000000000400f10 <usage>:
  400f10:	48 83 ec 08          	sub    $0x8,%rsp
  400f14:	48 89 fe             	mov    %rdi,%rsi
  400f17:	83 3d ea 35 20 00 00 	cmpl   $0x0,0x2035ea(%rip)        # 604508 <is_checker>
  400f1e:	74 39                	je     400f59 <usage+0x49>
  400f20:	bf a0 2b 40 00       	mov    $0x402ba0,%edi
  400f25:	b8 00 00 00 00       	mov    $0x0,%eax
  400f2a:	e8 51 fd ff ff       	callq  400c80 <printf@plt>
  400f2f:	bf d8 2b 40 00       	mov    $0x402bd8,%edi
  400f34:	e8 17 fd ff ff       	callq  400c50 <puts@plt>
  400f39:	bf 50 2d 40 00       	mov    $0x402d50,%edi
  400f3e:	e8 0d fd ff ff       	callq  400c50 <puts@plt>
  400f43:	bf 00 2c 40 00       	mov    $0x402c00,%edi
  400f48:	e8 03 fd ff ff       	callq  400c50 <puts@plt>
  400f4d:	bf 6a 2d 40 00       	mov    $0x402d6a,%edi
  400f52:	e8 f9 fc ff ff       	callq  400c50 <puts@plt>
  400f57:	eb 2d                	jmp    400f86 <usage+0x76>
  400f59:	bf 86 2d 40 00       	mov    $0x402d86,%edi
  400f5e:	b8 00 00 00 00       	mov    $0x0,%eax
  400f63:	e8 18 fd ff ff       	callq  400c80 <printf@plt>
  400f68:	bf 28 2c 40 00       	mov    $0x402c28,%edi
  400f6d:	e8 de fc ff ff       	callq  400c50 <puts@plt>
  400f72:	bf 50 2c 40 00       	mov    $0x402c50,%edi
  400f77:	e8 d4 fc ff ff       	callq  400c50 <puts@plt>
  400f7c:	bf a4 2d 40 00       	mov    $0x402da4,%edi
  400f81:	e8 ca fc ff ff       	callq  400c50 <puts@plt>
  400f86:	bf 00 00 00 00       	mov    $0x0,%edi
  400f8b:	e8 60 fe ff ff       	callq  400df0 <exit@plt>

0000000000400f90 <initialize_target>:
  400f90:	55                   	push   %rbp
  400f91:	53                   	push   %rbx
  400f92:	48 81 ec 08 21 00 00 	sub    $0x2108,%rsp
  400f99:	89 f5                	mov    %esi,%ebp
  400f9b:	89 3d 57 35 20 00    	mov    %edi,0x203557(%rip)        # 6044f8 <check_level>
  400fa1:	8b 3d c1 31 20 00    	mov    0x2031c1(%rip),%edi        # 604168 <target_id>
  400fa7:	e8 37 1b 00 00       	callq  402ae3 <gencookie>
  400fac:	89 05 52 35 20 00    	mov    %eax,0x203552(%rip)        # 604504 <cookie>
  400fb2:	89 c7                	mov    %eax,%edi
  400fb4:	e8 2a 1b 00 00       	callq  402ae3 <gencookie>
  400fb9:	89 05 41 35 20 00    	mov    %eax,0x203541(%rip)        # 604500 <authkey>
  400fbf:	8b 05 a3 31 20 00    	mov    0x2031a3(%rip),%eax        # 604168 <target_id>
  400fc5:	8d 78 01             	lea    0x1(%rax),%edi
  400fc8:	e8 53 fc ff ff       	callq  400c20 <srandom@plt>
  400fcd:	e8 7e fd ff ff       	callq  400d50 <random@plt>
  400fd2:	89 c7                	mov    %eax,%edi
  400fd4:	e8 ca 02 00 00       	callq  4012a3 <scramble>
  400fd9:	89 c3                	mov    %eax,%ebx
  400fdb:	85 ed                	test   %ebp,%ebp
  400fdd:	74 18                	je     400ff7 <initialize_target+0x67>
  400fdf:	bf 00 00 00 00       	mov    $0x0,%edi
  400fe4:	e8 57 fd ff ff       	callq  400d40 <time@plt>
  400fe9:	89 c7                	mov    %eax,%edi
  400feb:	e8 30 fc ff ff       	callq  400c20 <srandom@plt>
  400ff0:	e8 5b fd ff ff       	callq  400d50 <random@plt>
  400ff5:	eb 05                	jmp    400ffc <initialize_target+0x6c>
  400ff7:	b8 00 00 00 00       	mov    $0x0,%eax
  400ffc:	01 c3                	add    %eax,%ebx
  400ffe:	0f b7 db             	movzwl %bx,%ebx
  401001:	8d 04 dd 00 01 00 00 	lea    0x100(,%rbx,8),%eax
  401008:	89 c0                	mov    %eax,%eax
  40100a:	48 89 05 8f 34 20 00 	mov    %rax,0x20348f(%rip)        # 6044a0 <buf_offset>
  401011:	c6 05 10 41 20 00 63 	movb   $0x63,0x204110(%rip)        # 605128 <target_prefix>
  401018:	83 3d 89 34 20 00 00 	cmpl   $0x0,0x203489(%rip)        # 6044a8 <notify>
  40101f:	0f 84 b1 00 00 00    	je     4010d6 <initialize_target+0x146>
  401025:	83 3d dc 34 20 00 00 	cmpl   $0x0,0x2034dc(%rip)        # 604508 <is_checker>
  40102c:	0f 85 a4 00 00 00    	jne    4010d6 <initialize_target+0x146>
  401032:	be 00 01 00 00       	mov    $0x100,%esi
  401037:	48 89 e7             	mov    %rsp,%rdi
  40103a:	e8 91 fd ff ff       	callq  400dd0 <gethostname@plt>
  40103f:	85 c0                	test   %eax,%eax
  401041:	74 25                	je     401068 <initialize_target+0xd8>
  401043:	bf 80 2c 40 00       	mov    $0x402c80,%edi
  401048:	e8 03 fc ff ff       	callq  400c50 <puts@plt>
  40104d:	bf 08 00 00 00       	mov    $0x8,%edi
  401052:	e8 99 fd ff ff       	callq  400df0 <exit@plt>
  401057:	48 89 e6             	mov    %rsp,%rsi
  40105a:	e8 a1 fb ff ff       	callq  400c00 <strcasecmp@plt>
  40105f:	85 c0                	test   %eax,%eax
  401061:	74 21                	je     401084 <initialize_target+0xf4>
  401063:	83 c3 01             	add    $0x1,%ebx
  401066:	eb 05                	jmp    40106d <initialize_target+0xdd>
  401068:	bb 00 00 00 00       	mov    $0x0,%ebx
  40106d:	48 63 c3             	movslq %ebx,%rax
  401070:	48 8b 3c c5 80 41 60 	mov    0x604180(,%rax,8),%rdi
  401077:	00 
  401078:	48 85 ff             	test   %rdi,%rdi
  40107b:	75 da                	jne    401057 <initialize_target+0xc7>
  40107d:	b8 00 00 00 00       	mov    $0x0,%eax
  401082:	eb 05                	jmp    401089 <initialize_target+0xf9>
  401084:	b8 01 00 00 00       	mov    $0x1,%eax
  401089:	85 c0                	test   %eax,%eax
  40108b:	75 17                	jne    4010a4 <initialize_target+0x114>
  40108d:	48 89 e6             	mov    %rsp,%rsi
  401090:	bf b8 2c 40 00       	mov    $0x402cb8,%edi
  401095:	e8 e6 fb ff ff       	callq  400c80 <printf@plt>
  40109a:	bf 08 00 00 00       	mov    $0x8,%edi
  40109f:	e8 4c fd ff ff       	callq  400df0 <exit@plt>
  4010a4:	48 8d bc 24 00 01 00 	lea    0x100(%rsp),%rdi
  4010ab:	00 
  4010ac:	e8 c9 17 00 00       	callq  40287a <init_driver>
  4010b1:	85 c0                	test   %eax,%eax
  4010b3:	79 21                	jns    4010d6 <initialize_target+0x146>
  4010b5:	48 8d b4 24 00 01 00 	lea    0x100(%rsp),%rsi
  4010bc:	00 
  4010bd:	bf f8 2c 40 00       	mov    $0x402cf8,%edi
  4010c2:	b8 00 00 00 00       	mov    $0x0,%eax
  4010c7:	e8 b4 fb ff ff       	callq  400c80 <printf@plt>
  4010cc:	bf 08 00 00 00       	mov    $0x8,%edi
  4010d1:	e8 1a fd ff ff       	callq  400df0 <exit@plt>
  4010d6:	48 81 c4 08 21 00 00 	add    $0x2108,%rsp
  4010dd:	5b                   	pop    %rbx
  4010de:	5d                   	pop    %rbp
  4010df:	c3                   	retq   

00000000004010e0 <main>:
  4010e0:	41 56                	push   %r14
  4010e2:	41 55                	push   %r13
  4010e4:	41 54                	push   %r12
  4010e6:	55                   	push   %rbp
  4010e7:	53                   	push   %rbx
  4010e8:	41 89 fc             	mov    %edi,%r12d
  4010eb:	48 89 f3             	mov    %rsi,%rbx
  4010ee:	be a1 1c 40 00       	mov    $0x401ca1,%esi
  4010f3:	bf 0b 00 00 00       	mov    $0xb,%edi
  4010f8:	e8 e3 fb ff ff       	callq  400ce0 <signal@plt>
  4010fd:	be 53 1c 40 00       	mov    $0x401c53,%esi
  401102:	bf 07 00 00 00       	mov    $0x7,%edi
  401107:	e8 d4 fb ff ff       	callq  400ce0 <signal@plt>
  40110c:	be ef 1c 40 00       	mov    $0x401cef,%esi
  401111:	bf 04 00 00 00       	mov    $0x4,%edi
  401116:	e8 c5 fb ff ff       	callq  400ce0 <signal@plt>
  40111b:	83 3d e6 33 20 00 00 	cmpl   $0x0,0x2033e6(%rip)        # 604508 <is_checker>
  401122:	74 20                	je     401144 <main+0x64>
  401124:	be 3d 1d 40 00       	mov    $0x401d3d,%esi
  401129:	bf 0e 00 00 00       	mov    $0xe,%edi
  40112e:	e8 ad fb ff ff       	callq  400ce0 <signal@plt>
  401133:	bf 05 00 00 00       	mov    $0x5,%edi
  401138:	e8 63 fb ff ff       	callq  400ca0 <alarm@plt>
  40113d:	bd c2 2d 40 00       	mov    $0x402dc2,%ebp
  401142:	eb 05                	jmp    401149 <main+0x69>
  401144:	bd bd 2d 40 00       	mov    $0x402dbd,%ebp
  401149:	48 8b 05 70 33 20 00 	mov    0x203370(%rip),%rax        # 6044c0 <stdin@@GLIBC_2.2.5>
  401150:	48 89 05 99 33 20 00 	mov    %rax,0x203399(%rip)        # 6044f0 <infile>
  401157:	41 bd 00 00 00 00    	mov    $0x0,%r13d
  40115d:	41 be 00 00 00 00    	mov    $0x0,%r14d
  401163:	e9 b9 00 00 00       	jmpq   401221 <main+0x141>
  401168:	83 e8 61             	sub    $0x61,%eax
  40116b:	3c 10                	cmp    $0x10,%al
  40116d:	0f 87 93 00 00 00    	ja     401206 <main+0x126>
  401173:	0f b6 c0             	movzbl %al,%eax
  401176:	ff 24 c5 08 2e 40 00 	jmpq   *0x402e08(,%rax,8)
  40117d:	48 8b 3b             	mov    (%rbx),%rdi
  401180:	e8 8b fd ff ff       	callq  400f10 <usage>
  401185:	be 5d 31 40 00       	mov    $0x40315d,%esi
  40118a:	48 8b 3d 37 33 20 00 	mov    0x203337(%rip),%rdi        # 6044c8 <optarg@@GLIBC_2.2.5>
  401191:	e8 0a fc ff ff       	callq  400da0 <fopen@plt>
  401196:	48 89 05 53 33 20 00 	mov    %rax,0x203353(%rip)        # 6044f0 <infile>
  40119d:	48 85 c0             	test   %rax,%rax
  4011a0:	75 7f                	jne    401221 <main+0x141>
  4011a2:	48 8b 15 1f 33 20 00 	mov    0x20331f(%rip),%rdx        # 6044c8 <optarg@@GLIBC_2.2.5>
  4011a9:	be ca 2d 40 00       	mov    $0x402dca,%esi
  4011ae:	48 8b 3d 1b 33 20 00 	mov    0x20331b(%rip),%rdi        # 6044d0 <stderr@@GLIBC_2.2.5>
  4011b5:	e8 46 fb ff ff       	callq  400d00 <fprintf@plt>
  4011ba:	b8 01 00 00 00       	mov    $0x1,%eax
  4011bf:	e9 d6 00 00 00       	jmpq   40129a <main+0x1ba>
  4011c4:	ba 10 00 00 00       	mov    $0x10,%edx
  4011c9:	be 00 00 00 00       	mov    $0x0,%esi
  4011ce:	48 8b 3d f3 32 20 00 	mov    0x2032f3(%rip),%rdi        # 6044c8 <optarg@@GLIBC_2.2.5>
  4011d5:	e8 e6 fb ff ff       	callq  400dc0 <strtoul@plt>
  4011da:	41 89 c6             	mov    %eax,%r14d
  4011dd:	eb 42                	jmp    401221 <main+0x141>
  4011df:	ba 0a 00 00 00       	mov    $0xa,%edx
  4011e4:	be 00 00 00 00       	mov    $0x0,%esi
  4011e9:	48 8b 3d d8 32 20 00 	mov    0x2032d8(%rip),%rdi        # 6044c8 <optarg@@GLIBC_2.2.5>
  4011f0:	e8 2b fb ff ff       	callq  400d20 <strtol@plt>
  4011f5:	41 89 c5             	mov    %eax,%r13d
  4011f8:	eb 27                	jmp    401221 <main+0x141>
  4011fa:	c7 05 a4 32 20 00 00 	movl   $0x0,0x2032a4(%rip)        # 6044a8 <notify>
  401201:	00 00 00 
  401204:	eb 1b                	jmp    401221 <main+0x141>
  401206:	40 0f be f6          	movsbl %sil,%esi
  40120a:	bf e7 2d 40 00       	mov    $0x402de7,%edi
  40120f:	b8 00 00 00 00       	mov    $0x0,%eax
  401214:	e8 67 fa ff ff       	callq  400c80 <printf@plt>
  401219:	48 8b 3b             	mov    (%rbx),%rdi
  40121c:	e8 ef fc ff ff       	callq  400f10 <usage>
  401221:	48 89 ea             	mov    %rbp,%rdx
  401224:	48 89 de             	mov    %rbx,%rsi
  401227:	44 89 e7             	mov    %r12d,%edi
  40122a:	e8 81 fb ff ff       	callq  400db0 <getopt@plt>
  40122f:	89 c6                	mov    %eax,%esi
  401231:	3c ff                	cmp    $0xff,%al
  401233:	0f 85 2f ff ff ff    	jne    401168 <main+0x88>
  401239:	be 00 00 00 00       	mov    $0x0,%esi
  40123e:	44 89 ef             	mov    %r13d,%edi
  401241:	e8 4a fd ff ff       	callq  400f90 <initialize_target>
  401246:	83 3d bb 32 20 00 00 	cmpl   $0x0,0x2032bb(%rip)        # 604508 <is_checker>
  40124d:	74 25                	je     401274 <main+0x194>
  40124f:	44 3b 35 aa 32 20 00 	cmp    0x2032aa(%rip),%r14d        # 604500 <authkey>
  401256:	74 1c                	je     401274 <main+0x194>
  401258:	44 89 f6             	mov    %r14d,%esi
  40125b:	bf 20 2d 40 00       	mov    $0x402d20,%edi
  401260:	b8 00 00 00 00       	mov    $0x0,%eax
  401265:	e8 16 fa ff ff       	callq  400c80 <printf@plt>
  40126a:	b8 00 00 00 00       	mov    $0x0,%eax
  40126f:	e8 e7 06 00 00       	callq  40195b <check_fail>
  401274:	8b 35 8a 32 20 00    	mov    0x20328a(%rip),%esi        # 604504 <cookie>
  40127a:	bf fa 2d 40 00       	mov    $0x402dfa,%edi
  40127f:	b8 00 00 00 00       	mov    $0x0,%eax
  401284:	e8 f7 f9 ff ff       	callq  400c80 <printf@plt>
  401289:	48 8b 3d 10 32 20 00 	mov    0x203210(%rip),%rdi        # 6044a0 <buf_offset>
  401290:	e8 77 0b 00 00       	callq  401e0c <stable_launch>
  401295:	b8 00 00 00 00       	mov    $0x0,%eax
  40129a:	5b                   	pop    %rbx
  40129b:	5d                   	pop    %rbp
  40129c:	41 5c                	pop    %r12
  40129e:	41 5d                	pop    %r13
  4012a0:	41 5e                	pop    %r14
  4012a2:	c3                   	retq   

00000000004012a3 <scramble>:
  4012a3:	b8 00 00 00 00       	mov    $0x0,%eax
  4012a8:	eb 11                	jmp    4012bb <scramble+0x18>
  4012aa:	69 c8 0b 01 00 00    	imul   $0x10b,%eax,%ecx
  4012b0:	01 f9                	add    %edi,%ecx
  4012b2:	89 c2                	mov    %eax,%edx
  4012b4:	89 4c 94 d0          	mov    %ecx,-0x30(%rsp,%rdx,4)
  4012b8:	83 c0 01             	add    $0x1,%eax
  4012bb:	83 f8 09             	cmp    $0x9,%eax
  4012be:	76 ea                	jbe    4012aa <scramble+0x7>
  4012c0:	8b 44 24 e4          	mov    -0x1c(%rsp),%eax
  4012c4:	69 c0 3b ae 00 00    	imul   $0xae3b,%eax,%eax
  4012ca:	89 44 24 e4          	mov    %eax,-0x1c(%rsp)
  4012ce:	8b 44 24 d4          	mov    -0x2c(%rsp),%eax
  4012d2:	69 c0 ff 4f 00 00    	imul   $0x4fff,%eax,%eax
  4012d8:	89 44 24 d4          	mov    %eax,-0x2c(%rsp)
  4012dc:	8b 44 24 e4          	mov    -0x1c(%rsp),%eax
  4012e0:	69 c0 3f 95 00 00    	imul   $0x953f,%eax,%eax
  4012e6:	89 44 24 e4          	mov    %eax,-0x1c(%rsp)
  4012ea:	8b 44 24 f4          	mov    -0xc(%rsp),%eax
  4012ee:	69 c0 b4 ed 00 00    	imul   $0xedb4,%eax,%eax
  4012f4:	89 44 24 f4          	mov    %eax,-0xc(%rsp)
  4012f8:	8b 44 24 d0          	mov    -0x30(%rsp),%eax
  4012fc:	69 c0 ba 2b 00 00    	imul   $0x2bba,%eax,%eax
  401302:	89 44 24 d0          	mov    %eax,-0x30(%rsp)
  401306:	8b 44 24 dc          	mov    -0x24(%rsp),%eax
  40130a:	69 c0 4c 3d 00 00    	imul   $0x3d4c,%eax,%eax
  401310:	89 44 24 dc          	mov    %eax,-0x24(%rsp)
  401314:	8b 44 24 f0          	mov    -0x10(%rsp),%eax
  401318:	69 c0 e8 bf 00 00    	imul   $0xbfe8,%eax,%eax
  40131e:	89 44 24 f0          	mov    %eax,-0x10(%rsp)
  401322:	8b 44 24 d0          	mov    -0x30(%rsp),%eax
  401326:	69 c0 f2 7b 00 00    	imul   $0x7bf2,%eax,%eax
  40132c:	89 44 24 d0          	mov    %eax,-0x30(%rsp)
  401330:	8b 44 24 d0          	mov    -0x30(%rsp),%eax
  401334:	69 c0 18 5c 00 00    	imul   $0x5c18,%eax,%eax
  40133a:	89 44 24 d0          	mov    %eax,-0x30(%rsp)
  40133e:	8b 44 24 f0          	mov    -0x10(%rsp),%eax
  401342:	69 c0 50 28 00 00    	imul   $0x2850,%eax,%eax
  401348:	89 44 24 f0          	mov    %eax,-0x10(%rsp)
  40134c:	8b 44 24 d0          	mov    -0x30(%rsp),%eax
  401350:	69 c0 14 28 00 00    	imul   $0x2814,%eax,%eax
  401356:	89 44 24 d0          	mov    %eax,-0x30(%rsp)
  40135a:	8b 44 24 f4          	mov    -0xc(%rsp),%eax
  40135e:	69 c0 d6 9e 00 00    	imul   $0x9ed6,%eax,%eax
  401364:	89 44 24 f4          	mov    %eax,-0xc(%rsp)
  401368:	8b 44 24 e4          	mov    -0x1c(%rsp),%eax
  40136c:	69 c0 6c e3 00 00    	imul   $0xe36c,%eax,%eax
  401372:	89 44 24 e4          	mov    %eax,-0x1c(%rsp)
  401376:	8b 44 24 dc          	mov    -0x24(%rsp),%eax
  40137a:	69 c0 f3 a0 00 00    	imul   $0xa0f3,%eax,%eax
  401380:	89 44 24 dc          	mov    %eax,-0x24(%rsp)
  401384:	8b 44 24 e8          	mov    -0x18(%rsp),%eax
  401388:	69 c0 da f8 00 00    	imul   $0xf8da,%eax,%eax
  40138e:	89 44 24 e8          	mov    %eax,-0x18(%rsp)
  401392:	8b 44 24 d0          	mov    -0x30(%rsp),%eax
  401396:	69 c0 7e 34 00 00    	imul   $0x347e,%eax,%eax
  40139c:	89 44 24 d0          	mov    %eax,-0x30(%rsp)
  4013a0:	8b 44 24 dc          	mov    -0x24(%rsp),%eax
  4013a4:	69 c0 01 ef 00 00    	imul   $0xef01,%eax,%eax
  4013aa:	89 44 24 dc          	mov    %eax,-0x24(%rsp)
  4013ae:	8b 44 24 e0          	mov    -0x20(%rsp),%eax
  4013b2:	69 c0 81 de 00 00    	imul   $0xde81,%eax,%eax
  4013b8:	89 44 24 e0          	mov    %eax,-0x20(%rsp)
  4013bc:	8b 44 24 d4          	mov    -0x2c(%rsp),%eax
  4013c0:	69 c0 96 85 00 00    	imul   $0x8596,%eax,%eax
  4013c6:	89 44 24 d4          	mov    %eax,-0x2c(%rsp)
  4013ca:	8b 44 24 d4          	mov    -0x2c(%rsp),%eax
  4013ce:	69 c0 43 78 00 00    	imul   $0x7843,%eax,%eax
  4013d4:	89 44 24 d4          	mov    %eax,-0x2c(%rsp)
  4013d8:	8b 44 24 e0          	mov    -0x20(%rsp),%eax
  4013dc:	69 c0 da 92 00 00    	imul   $0x92da,%eax,%eax
  4013e2:	89 44 24 e0          	mov    %eax,-0x20(%rsp)
  4013e6:	8b 44 24 e0          	mov    -0x20(%rsp),%eax
  4013ea:	69 c0 0c aa 00 00    	imul   $0xaa0c,%eax,%eax
  4013f0:	89 44 24 e0          	mov    %eax,-0x20(%rsp)
  4013f4:	8b 44 24 d0          	mov    -0x30(%rsp),%eax
  4013f8:	69 c0 aa 69 00 00    	imul   $0x69aa,%eax,%eax
  4013fe:	89 44 24 d0          	mov    %eax,-0x30(%rsp)
  401402:	8b 44 24 e0          	mov    -0x20(%rsp),%eax
  401406:	69 c0 c6 a9 00 00    	imul   $0xa9c6,%eax,%eax
  40140c:	89 44 24 e0          	mov    %eax,-0x20(%rsp)
  401410:	8b 44 24 d0          	mov    -0x30(%rsp),%eax
  401414:	69 c0 0c a7 00 00    	imul   $0xa70c,%eax,%eax
  40141a:	89 44 24 d0          	mov    %eax,-0x30(%rsp)
  40141e:	8b 44 24 f0          	mov    -0x10(%rsp),%eax
  401422:	69 c0 42 cb 00 00    	imul   $0xcb42,%eax,%eax
  401428:	89 44 24 f0          	mov    %eax,-0x10(%rsp)
  40142c:	8b 44 24 d0          	mov    -0x30(%rsp),%eax
  401430:	69 c0 d4 4f 00 00    	imul   $0x4fd4,%eax,%eax
  401436:	89 44 24 d0          	mov    %eax,-0x30(%rsp)
  40143a:	8b 44 24 ec          	mov    -0x14(%rsp),%eax
  40143e:	69 c0 b2 f9 00 00    	imul   $0xf9b2,%eax,%eax
  401444:	89 44 24 ec          	mov    %eax,-0x14(%rsp)
  401448:	8b 44 24 e4          	mov    -0x1c(%rsp),%eax
  40144c:	69 c0 59 ee 00 00    	imul   $0xee59,%eax,%eax
  401452:	89 44 24 e4          	mov    %eax,-0x1c(%rsp)
  401456:	8b 44 24 e4          	mov    -0x1c(%rsp),%eax
  40145a:	69 c0 b4 66 00 00    	imul   $0x66b4,%eax,%eax
  401460:	89 44 24 e4          	mov    %eax,-0x1c(%rsp)
  401464:	8b 44 24 f4          	mov    -0xc(%rsp),%eax
  401468:	69 c0 2b 74 00 00    	imul   $0x742b,%eax,%eax
  40146e:	89 44 24 f4          	mov    %eax,-0xc(%rsp)
  401472:	8b 44 24 e0          	mov    -0x20(%rsp),%eax
  401476:	69 c0 49 8e 00 00    	imul   $0x8e49,%eax,%eax
  40147c:	89 44 24 e0          	mov    %eax,-0x20(%rsp)
  401480:	8b 44 24 f0          	mov    -0x10(%rsp),%eax
  401484:	69 c0 b0 1f 00 00    	imul   $0x1fb0,%eax,%eax
  40148a:	89 44 24 f0          	mov    %eax,-0x10(%rsp)
  40148e:	8b 44 24 dc          	mov    -0x24(%rsp),%eax
  401492:	69 c0 6c e7 00 00    	imul   $0xe76c,%eax,%eax
  401498:	89 44 24 dc          	mov    %eax,-0x24(%rsp)
  40149c:	8b 44 24 e8          	mov    -0x18(%rsp),%eax
  4014a0:	69 c0 00 39 00 00    	imul   $0x3900,%eax,%eax
  4014a6:	89 44 24 e8          	mov    %eax,-0x18(%rsp)
  4014aa:	8b 44 24 e0          	mov    -0x20(%rsp),%eax
  4014ae:	69 c0 98 56 00 00    	imul   $0x5698,%eax,%eax
  4014b4:	89 44 24 e0          	mov    %eax,-0x20(%rsp)
  4014b8:	8b 44 24 d0          	mov    -0x30(%rsp),%eax
  4014bc:	69 c0 40 15 00 00    	imul   $0x1540,%eax,%eax
  4014c2:	89 44 24 d0          	mov    %eax,-0x30(%rsp)
  4014c6:	8b 44 24 e0          	mov    -0x20(%rsp),%eax
  4014ca:	69 c0 9c 1e 00 00    	imul   $0x1e9c,%eax,%eax
  4014d0:	89 44 24 e0          	mov    %eax,-0x20(%rsp)
  4014d4:	8b 44 24 e8          	mov    -0x18(%rsp),%eax
  4014d8:	69 c0 a2 26 00 00    	imul   $0x26a2,%eax,%eax
  4014de:	89 44 24 e8          	mov    %eax,-0x18(%rsp)
  4014e2:	8b 44 24 d8          	mov    -0x28(%rsp),%eax
  4014e6:	69 c0 ac 44 00 00    	imul   $0x44ac,%eax,%eax
  4014ec:	89 44 24 d8          	mov    %eax,-0x28(%rsp)
  4014f0:	8b 44 24 d8          	mov    -0x28(%rsp),%eax
  4014f4:	69 c0 78 9a 00 00    	imul   $0x9a78,%eax,%eax
  4014fa:	89 44 24 d8          	mov    %eax,-0x28(%rsp)
  4014fe:	8b 44 24 d0          	mov    -0x30(%rsp),%eax
  401502:	69 c0 cf 9c 00 00    	imul   $0x9ccf,%eax,%eax
  401508:	89 44 24 d0          	mov    %eax,-0x30(%rsp)
  40150c:	8b 44 24 dc          	mov    -0x24(%rsp),%eax
  401510:	69 c0 06 7a 00 00    	imul   $0x7a06,%eax,%eax
  401516:	89 44 24 dc          	mov    %eax,-0x24(%rsp)
  40151a:	8b 44 24 dc          	mov    -0x24(%rsp),%eax
  40151e:	69 c0 8d 1d 00 00    	imul   $0x1d8d,%eax,%eax
  401524:	89 44 24 dc          	mov    %eax,-0x24(%rsp)
  401528:	8b 44 24 d0          	mov    -0x30(%rsp),%eax
  40152c:	69 c0 26 31 00 00    	imul   $0x3126,%eax,%eax
  401532:	89 44 24 d0          	mov    %eax,-0x30(%rsp)
  401536:	8b 44 24 d8          	mov    -0x28(%rsp),%eax
  40153a:	69 c0 92 4f 00 00    	imul   $0x4f92,%eax,%eax
  401540:	89 44 24 d8          	mov    %eax,-0x28(%rsp)
  401544:	8b 44 24 e0          	mov    -0x20(%rsp),%eax
  401548:	69 c0 75 1f 00 00    	imul   $0x1f75,%eax,%eax
  40154e:	89 44 24 e0          	mov    %eax,-0x20(%rsp)
  401552:	8b 44 24 e4          	mov    -0x1c(%rsp),%eax
  401556:	69 c0 7e 08 00 00    	imul   $0x87e,%eax,%eax
  40155c:	89 44 24 e4          	mov    %eax,-0x1c(%rsp)
  401560:	8b 44 24 ec          	mov    -0x14(%rsp),%eax
  401564:	69 c0 a6 4a 00 00    	imul   $0x4aa6,%eax,%eax
  40156a:	89 44 24 ec          	mov    %eax,-0x14(%rsp)
  40156e:	8b 44 24 e0          	mov    -0x20(%rsp),%eax
  401572:	69 c0 6c e4 00 00    	imul   $0xe46c,%eax,%eax
  401578:	89 44 24 e0          	mov    %eax,-0x20(%rsp)
  40157c:	8b 44 24 e0          	mov    -0x20(%rsp),%eax
  401580:	69 c0 9b 4f 00 00    	imul   $0x4f9b,%eax,%eax
  401586:	89 44 24 e0          	mov    %eax,-0x20(%rsp)
  40158a:	8b 44 24 e4          	mov    -0x1c(%rsp),%eax
  40158e:	69 c0 80 4f 00 00    	imul   $0x4f80,%eax,%eax
  401594:	89 44 24 e4          	mov    %eax,-0x1c(%rsp)
  401598:	8b 44 24 f0          	mov    -0x10(%rsp),%eax
  40159c:	69 c0 a8 3b 00 00    	imul   $0x3ba8,%eax,%eax
  4015a2:	89 44 24 f0          	mov    %eax,-0x10(%rsp)
  4015a6:	8b 44 24 e8          	mov    -0x18(%rsp),%eax
  4015aa:	69 c0 c5 e3 00 00    	imul   $0xe3c5,%eax,%eax
  4015b0:	89 44 24 e8          	mov    %eax,-0x18(%rsp)
  4015b4:	8b 44 24 d4          	mov    -0x2c(%rsp),%eax
  4015b8:	69 c0 7e 36 00 00    	imul   $0x367e,%eax,%eax
  4015be:	89 44 24 d4          	mov    %eax,-0x2c(%rsp)
  4015c2:	8b 44 24 e0          	mov    -0x20(%rsp),%eax
  4015c6:	69 c0 f9 2f 00 00    	imul   $0x2ff9,%eax,%eax
  4015cc:	89 44 24 e0          	mov    %eax,-0x20(%rsp)
  4015d0:	8b 44 24 e0          	mov    -0x20(%rsp),%eax
  4015d4:	69 c0 5f 38 00 00    	imul   $0x385f,%eax,%eax
  4015da:	89 44 24 e0          	mov    %eax,-0x20(%rsp)
  4015de:	8b 44 24 f4          	mov    -0xc(%rsp),%eax
  4015e2:	69 c0 43 bb 00 00    	imul   $0xbb43,%eax,%eax
  4015e8:	89 44 24 f4          	mov    %eax,-0xc(%rsp)
  4015ec:	8b 44 24 e0          	mov    -0x20(%rsp),%eax
  4015f0:	69 c0 49 63 00 00    	imul   $0x6349,%eax,%eax
  4015f6:	89 44 24 e0          	mov    %eax,-0x20(%rsp)
  4015fa:	8b 44 24 f4          	mov    -0xc(%rsp),%eax
  4015fe:	69 c0 c4 1a 00 00    	imul   $0x1ac4,%eax,%eax
  401604:	89 44 24 f4          	mov    %eax,-0xc(%rsp)
  401608:	8b 44 24 d0          	mov    -0x30(%rsp),%eax
  40160c:	69 c0 12 5d 00 00    	imul   $0x5d12,%eax,%eax
  401612:	89 44 24 d0          	mov    %eax,-0x30(%rsp)
  401616:	8b 44 24 ec          	mov    -0x14(%rsp),%eax
  40161a:	69 c0 c1 39 00 00    	imul   $0x39c1,%eax,%eax
  401620:	89 44 24 ec          	mov    %eax,-0x14(%rsp)
  401624:	8b 44 24 d0          	mov    -0x30(%rsp),%eax
  401628:	69 c0 32 48 00 00    	imul   $0x4832,%eax,%eax
  40162e:	89 44 24 d0          	mov    %eax,-0x30(%rsp)
  401632:	8b 44 24 d4          	mov    -0x2c(%rsp),%eax
  401636:	69 c0 ad bb 00 00    	imul   $0xbbad,%eax,%eax
  40163c:	89 44 24 d4          	mov    %eax,-0x2c(%rsp)
  401640:	8b 44 24 d4          	mov    -0x2c(%rsp),%eax
  401644:	69 c0 2b 32 00 00    	imul   $0x322b,%eax,%eax
  40164a:	89 44 24 d4          	mov    %eax,-0x2c(%rsp)
  40164e:	8b 44 24 d8          	mov    -0x28(%rsp),%eax
  401652:	69 c0 7f 16 00 00    	imul   $0x167f,%eax,%eax
  401658:	89 44 24 d8          	mov    %eax,-0x28(%rsp)
  40165c:	8b 44 24 e8          	mov    -0x18(%rsp),%eax
  401660:	69 c0 1e db 00 00    	imul   $0xdb1e,%eax,%eax
  401666:	89 44 24 e8          	mov    %eax,-0x18(%rsp)
  40166a:	8b 44 24 e0          	mov    -0x20(%rsp),%eax
  40166e:	69 c0 a1 e6 00 00    	imul   $0xe6a1,%eax,%eax
  401674:	89 44 24 e0          	mov    %eax,-0x20(%rsp)
  401678:	8b 44 24 f0          	mov    -0x10(%rsp),%eax
  40167c:	69 c0 1c d4 00 00    	imul   $0xd41c,%eax,%eax
  401682:	89 44 24 f0          	mov    %eax,-0x10(%rsp)
  401686:	8b 44 24 e4          	mov    -0x1c(%rsp),%eax
  40168a:	69 c0 11 79 00 00    	imul   $0x7911,%eax,%eax
  401690:	89 44 24 e4          	mov    %eax,-0x1c(%rsp)
  401694:	8b 44 24 e0          	mov    -0x20(%rsp),%eax
  401698:	69 c0 d7 f2 00 00    	imul   $0xf2d7,%eax,%eax
  40169e:	89 44 24 e0          	mov    %eax,-0x20(%rsp)
  4016a2:	8b 44 24 e8          	mov    -0x18(%rsp),%eax
  4016a6:	69 c0 91 db 00 00    	imul   $0xdb91,%eax,%eax
  4016ac:	89 44 24 e8          	mov    %eax,-0x18(%rsp)
  4016b0:	8b 44 24 e8          	mov    -0x18(%rsp),%eax
  4016b4:	69 c0 d2 75 00 00    	imul   $0x75d2,%eax,%eax
  4016ba:	89 44 24 e8          	mov    %eax,-0x18(%rsp)
  4016be:	8b 44 24 d4          	mov    -0x2c(%rsp),%eax
  4016c2:	69 c0 9b dd 00 00    	imul   $0xdd9b,%eax,%eax
  4016c8:	89 44 24 d4          	mov    %eax,-0x2c(%rsp)
  4016cc:	8b 44 24 f4          	mov    -0xc(%rsp),%eax
  4016d0:	69 c0 a5 6f 00 00    	imul   $0x6fa5,%eax,%eax
  4016d6:	89 44 24 f4          	mov    %eax,-0xc(%rsp)
  4016da:	8b 44 24 f4          	mov    -0xc(%rsp),%eax
  4016de:	69 c0 8a 6d 00 00    	imul   $0x6d8a,%eax,%eax
  4016e4:	89 44 24 f4          	mov    %eax,-0xc(%rsp)
  4016e8:	8b 44 24 e0          	mov    -0x20(%rsp),%eax
  4016ec:	69 c0 b5 62 00 00    	imul   $0x62b5,%eax,%eax
  4016f2:	89 44 24 e0          	mov    %eax,-0x20(%rsp)
  4016f6:	8b 44 24 d0          	mov    -0x30(%rsp),%eax
  4016fa:	69 c0 3f 49 00 00    	imul   $0x493f,%eax,%eax
  401700:	89 44 24 d0          	mov    %eax,-0x30(%rsp)
  401704:	8b 44 24 d0          	mov    -0x30(%rsp),%eax
  401708:	69 c0 8c e9 00 00    	imul   $0xe98c,%eax,%eax
  40170e:	89 44 24 d0          	mov    %eax,-0x30(%rsp)
  401712:	8b 44 24 dc          	mov    -0x24(%rsp),%eax
  401716:	69 c0 c1 3d 00 00    	imul   $0x3dc1,%eax,%eax
  40171c:	89 44 24 dc          	mov    %eax,-0x24(%rsp)
  401720:	8b 44 24 f0          	mov    -0x10(%rsp),%eax
  401724:	69 c0 05 a5 00 00    	imul   $0xa505,%eax,%eax
  40172a:	89 44 24 f0          	mov    %eax,-0x10(%rsp)
  40172e:	ba 00 00 00 00       	mov    $0x0,%edx
  401733:	b8 00 00 00 00       	mov    $0x0,%eax
  401738:	eb 0b                	jmp    401745 <scramble+0x4a2>
  40173a:	89 d1                	mov    %edx,%ecx
  40173c:	8b 4c 8c d0          	mov    -0x30(%rsp,%rcx,4),%ecx
  401740:	01 c8                	add    %ecx,%eax
  401742:	83 c2 01             	add    $0x1,%edx
  401745:	83 fa 09             	cmp    $0x9,%edx
  401748:	76 f0                	jbe    40173a <scramble+0x497>
  40174a:	f3 c3                	repz retq 

000000000040174c <getbuf>:
  40174c:	48 83 ec 38          	sub    $0x38,%rsp
  401750:	48 89 e7             	mov    %rsp,%rdi
  401753:	e8 32 02 00 00       	callq  40198a <Gets>
  401758:	b8 01 00 00 00       	mov    $0x1,%eax
  40175d:	48 83 c4 38          	add    $0x38,%rsp
  401761:	c3                   	retq   

0000000000401762 <touch1>:
  401762:	48 83 ec 08          	sub    $0x8,%rsp
  401766:	c7 05 8c 2d 20 00 01 	movl   $0x1,0x202d8c(%rip)        # 6044fc <vlevel>
  40176d:	00 00 00 
  401770:	bf b3 2f 40 00       	mov    $0x402fb3,%edi
  401775:	e8 d6 f4 ff ff       	callq  400c50 <puts@plt>
  40177a:	bf 01 00 00 00       	mov    $0x1,%edi
  40177f:	e8 f5 03 00 00       	callq  401b79 <validate>
  401784:	bf 00 00 00 00       	mov    $0x0,%edi
  401789:	e8 62 f6 ff ff       	callq  400df0 <exit@plt>

000000000040178e <touch2>:
  40178e:	48 83 ec 08          	sub    $0x8,%rsp
  401792:	89 fe                	mov    %edi,%esi
  401794:	c7 05 5e 2d 20 00 02 	movl   $0x2,0x202d5e(%rip)        # 6044fc <vlevel>
  40179b:	00 00 00 
  40179e:	3b 3d 60 2d 20 00    	cmp    0x202d60(%rip),%edi        # 604504 <cookie>
  4017a4:	75 1b                	jne    4017c1 <touch2+0x33>
  4017a6:	bf d8 2f 40 00       	mov    $0x402fd8,%edi
  4017ab:	b8 00 00 00 00       	mov    $0x0,%eax
  4017b0:	e8 cb f4 ff ff       	callq  400c80 <printf@plt>
  4017b5:	bf 02 00 00 00       	mov    $0x2,%edi
  4017ba:	e8 ba 03 00 00       	callq  401b79 <validate>
  4017bf:	eb 19                	jmp    4017da <touch2+0x4c>
  4017c1:	bf 00 30 40 00       	mov    $0x403000,%edi
  4017c6:	b8 00 00 00 00       	mov    $0x0,%eax
  4017cb:	e8 b0 f4 ff ff       	callq  400c80 <printf@plt>
  4017d0:	bf 02 00 00 00       	mov    $0x2,%edi
  4017d5:	e8 51 04 00 00       	callq  401c2b <fail>
  4017da:	bf 00 00 00 00       	mov    $0x0,%edi
  4017df:	e8 0c f6 ff ff       	callq  400df0 <exit@plt>

00000000004017e4 <hexmatch>:
  4017e4:	41 54                	push   %r12
  4017e6:	55                   	push   %rbp
  4017e7:	53                   	push   %rbx
  4017e8:	48 83 ec 70          	sub    $0x70,%rsp
  4017ec:	41 89 fc             	mov    %edi,%r12d
  4017ef:	48 89 f5             	mov    %rsi,%rbp
  4017f2:	e8 59 f5 ff ff       	callq  400d50 <random@plt>
  4017f7:	48 89 c1             	mov    %rax,%rcx
  4017fa:	48 ba 0b d7 a3 70 3d 	movabs $0xa3d70a3d70a3d70b,%rdx
  401801:	0a d7 a3 
  401804:	48 f7 ea             	imul   %rdx
  401807:	48 8d 04 0a          	lea    (%rdx,%rcx,1),%rax
  40180b:	48 c1 f8 06          	sar    $0x6,%rax
  40180f:	48 89 ce             	mov    %rcx,%rsi
  401812:	48 c1 fe 3f          	sar    $0x3f,%rsi
  401816:	48 29 f0             	sub    %rsi,%rax
  401819:	48 8d 04 80          	lea    (%rax,%rax,4),%rax
  40181d:	48 8d 04 80          	lea    (%rax,%rax,4),%rax
  401821:	48 c1 e0 02          	shl    $0x2,%rax
  401825:	48 29 c1             	sub    %rax,%rcx
  401828:	48 8d 1c 0c          	lea    (%rsp,%rcx,1),%rbx
  40182c:	44 89 e2             	mov    %r12d,%edx
  40182f:	be d0 2f 40 00       	mov    $0x402fd0,%esi
  401834:	48 89 df             	mov    %rbx,%rdi
  401837:	b8 00 00 00 00       	mov    $0x0,%eax
  40183c:	e8 9f f5 ff ff       	callq  400de0 <sprintf@plt>
  401841:	ba 09 00 00 00       	mov    $0x9,%edx
  401846:	48 89 de             	mov    %rbx,%rsi
  401849:	48 89 ef             	mov    %rbp,%rdi
  40184c:	e8 df f3 ff ff       	callq  400c30 <strncmp@plt>
  401851:	85 c0                	test   %eax,%eax
  401853:	0f 94 c0             	sete   %al
  401856:	0f b6 c0             	movzbl %al,%eax
  401859:	48 83 c4 70          	add    $0x70,%rsp
  40185d:	5b                   	pop    %rbx
  40185e:	5d                   	pop    %rbp
  40185f:	41 5c                	pop    %r12
  401861:	c3                   	retq   

0000000000401862 <touch3>:
  401862:	53                   	push   %rbx
  401863:	48 89 fb             	mov    %rdi,%rbx
  401866:	c7 05 8c 2c 20 00 03 	movl   $0x3,0x202c8c(%rip)        # 6044fc <vlevel>
  40186d:	00 00 00 
  401870:	48 89 fe             	mov    %rdi,%rsi
  401873:	8b 3d 8b 2c 20 00    	mov    0x202c8b(%rip),%edi        # 604504 <cookie>
  401879:	e8 66 ff ff ff       	callq  4017e4 <hexmatch>
  40187e:	85 c0                	test   %eax,%eax
  401880:	74 1e                	je     4018a0 <touch3+0x3e>
  401882:	48 89 de             	mov    %rbx,%rsi
  401885:	bf 28 30 40 00       	mov    $0x403028,%edi
  40188a:	b8 00 00 00 00       	mov    $0x0,%eax
  40188f:	e8 ec f3 ff ff       	callq  400c80 <printf@plt>
  401894:	bf 03 00 00 00       	mov    $0x3,%edi
  401899:	e8 db 02 00 00       	callq  401b79 <validate>
  40189e:	eb 1c                	jmp    4018bc <touch3+0x5a>
  4018a0:	48 89 de             	mov    %rbx,%rsi
  4018a3:	bf 50 30 40 00       	mov    $0x403050,%edi
  4018a8:	b8 00 00 00 00       	mov    $0x0,%eax
  4018ad:	e8 ce f3 ff ff       	callq  400c80 <printf@plt>
  4018b2:	bf 03 00 00 00       	mov    $0x3,%edi
  4018b7:	e8 6f 03 00 00       	callq  401c2b <fail>
  4018bc:	bf 00 00 00 00       	mov    $0x0,%edi
  4018c1:	e8 2a f5 ff ff       	callq  400df0 <exit@plt>

00000000004018c6 <test>:
  4018c6:	48 83 ec 08          	sub    $0x8,%rsp
  4018ca:	b8 00 00 00 00       	mov    $0x0,%eax
  4018cf:	e8 78 fe ff ff       	callq  40174c <getbuf>
  4018d4:	89 c6                	mov    %eax,%esi
  4018d6:	bf 78 30 40 00       	mov    $0x403078,%edi
  4018db:	b8 00 00 00 00       	mov    $0x0,%eax
  4018e0:	e8 9b f3 ff ff       	callq  400c80 <printf@plt>
  4018e5:	48 83 c4 08          	add    $0x8,%rsp
  4018e9:	c3                   	retq   
  4018ea:	66 0f 1f 44 00 00    	nopw   0x0(%rax,%rax,1)

00000000004018f0 <save_char>:
  4018f0:	8b 05 2e 38 20 00    	mov    0x20382e(%rip),%eax        # 605124 <gets_cnt>
  4018f6:	3d ff 03 00 00       	cmp    $0x3ff,%eax
  4018fb:	7f 49                	jg     401946 <save_char+0x56>
  4018fd:	8d 14 40             	lea    (%rax,%rax,2),%edx
  401900:	89 f9                	mov    %edi,%ecx
  401902:	c0 e9 04             	shr    $0x4,%cl
  401905:	83 e1 0f             	and    $0xf,%ecx
  401908:	0f b6 b1 a0 33 40 00 	movzbl 0x4033a0(%rcx),%esi
  40190f:	48 63 ca             	movslq %edx,%rcx
  401912:	40 88 b1 20 45 60 00 	mov    %sil,0x604520(%rcx)
  401919:	8d 4a 01             	lea    0x1(%rdx),%ecx
  40191c:	83 e7 0f             	and    $0xf,%edi
  40191f:	0f b6 b7 a0 33 40 00 	movzbl 0x4033a0(%rdi),%esi
  401926:	48 63 c9             	movslq %ecx,%rcx
  401929:	40 88 b1 20 45 60 00 	mov    %sil,0x604520(%rcx)
  401930:	83 c2 02             	add    $0x2,%edx
  401933:	48 63 d2             	movslq %edx,%rdx
  401936:	c6 82 20 45 60 00 20 	movb   $0x20,0x604520(%rdx)
  40193d:	83 c0 01             	add    $0x1,%eax
  401940:	89 05 de 37 20 00    	mov    %eax,0x2037de(%rip)        # 605124 <gets_cnt>
  401946:	f3 c3                	repz retq 

0000000000401948 <save_term>:
  401948:	8b 05 d6 37 20 00    	mov    0x2037d6(%rip),%eax        # 605124 <gets_cnt>
  40194e:	8d 04 40             	lea    (%rax,%rax,2),%eax
  401951:	48 98                	cltq   
  401953:	c6 80 20 45 60 00 00 	movb   $0x0,0x604520(%rax)
  40195a:	c3                   	retq   

000000000040195b <check_fail>:
  40195b:	48 83 ec 08          	sub    $0x8,%rsp
  40195f:	0f be 35 c2 37 20 00 	movsbl 0x2037c2(%rip),%esi        # 605128 <target_prefix>
  401966:	b9 20 45 60 00       	mov    $0x604520,%ecx
  40196b:	8b 15 87 2b 20 00    	mov    0x202b87(%rip),%edx        # 6044f8 <check_level>
  401971:	bf 9b 30 40 00       	mov    $0x40309b,%edi
  401976:	b8 00 00 00 00       	mov    $0x0,%eax
  40197b:	e8 00 f3 ff ff       	callq  400c80 <printf@plt>
  401980:	bf 01 00 00 00       	mov    $0x1,%edi
  401985:	e8 66 f4 ff ff       	callq  400df0 <exit@plt>

000000000040198a <Gets>:
  40198a:	41 54                	push   %r12
  40198c:	55                   	push   %rbp
  40198d:	53                   	push   %rbx
  40198e:	49 89 fc             	mov    %rdi,%r12
  401991:	c7 05 89 37 20 00 00 	movl   $0x0,0x203789(%rip)        # 605124 <gets_cnt>
  401998:	00 00 00 
  40199b:	48 89 fb             	mov    %rdi,%rbx
  40199e:	eb 11                	jmp    4019b1 <Gets+0x27>
  4019a0:	48 8d 6b 01          	lea    0x1(%rbx),%rbp
  4019a4:	88 03                	mov    %al,(%rbx)
  4019a6:	0f b6 f8             	movzbl %al,%edi
  4019a9:	e8 42 ff ff ff       	callq  4018f0 <save_char>
  4019ae:	48 89 eb             	mov    %rbp,%rbx
  4019b1:	48 8b 3d 38 2b 20 00 	mov    0x202b38(%rip),%rdi        # 6044f0 <infile>
  4019b8:	e8 a3 f3 ff ff       	callq  400d60 <_IO_getc@plt>
  4019bd:	83 f8 ff             	cmp    $0xffffffff,%eax
  4019c0:	74 05                	je     4019c7 <Gets+0x3d>
  4019c2:	83 f8 0a             	cmp    $0xa,%eax
  4019c5:	75 d9                	jne    4019a0 <Gets+0x16>
  4019c7:	c6 03 00             	movb   $0x0,(%rbx)
  4019ca:	b8 00 00 00 00       	mov    $0x0,%eax
  4019cf:	e8 74 ff ff ff       	callq  401948 <save_term>
  4019d4:	4c 89 e0             	mov    %r12,%rax
  4019d7:	5b                   	pop    %rbx
  4019d8:	5d                   	pop    %rbp
  4019d9:	41 5c                	pop    %r12
  4019db:	c3                   	retq   

00000000004019dc <notify_server>:
  4019dc:	83 3d 25 2b 20 00 00 	cmpl   $0x0,0x202b25(%rip)        # 604508 <is_checker>
  4019e3:	0f 85 8e 01 00 00    	jne    401b77 <notify_server+0x19b>
  4019e9:	53                   	push   %rbx
  4019ea:	48 81 ec 10 40 00 00 	sub    $0x4010,%rsp
  4019f1:	89 fb                	mov    %edi,%ebx
  4019f3:	8b 05 2b 37 20 00    	mov    0x20372b(%rip),%eax        # 605124 <gets_cnt>
  4019f9:	83 c0 64             	add    $0x64,%eax
  4019fc:	3d 00 20 00 00       	cmp    $0x2000,%eax
  401a01:	7e 19                	jle    401a1c <notify_server+0x40>
  401a03:	bf d0 31 40 00       	mov    $0x4031d0,%edi
  401a08:	b8 00 00 00 00       	mov    $0x0,%eax
  401a0d:	e8 6e f2 ff ff       	callq  400c80 <printf@plt>
  401a12:	bf 01 00 00 00       	mov    $0x1,%edi
  401a17:	e8 d4 f3 ff ff       	callq  400df0 <exit@plt>
  401a1c:	44 0f be 0d 04 37 20 	movsbl 0x203704(%rip),%r9d        # 605128 <target_prefix>
  401a23:	00 
  401a24:	83 3d 7d 2a 20 00 00 	cmpl   $0x0,0x202a7d(%rip)        # 6044a8 <notify>
  401a2b:	74 09                	je     401a36 <notify_server+0x5a>
  401a2d:	44 8b 05 cc 2a 20 00 	mov    0x202acc(%rip),%r8d        # 604500 <authkey>
  401a34:	eb 06                	jmp    401a3c <notify_server+0x60>
  401a36:	41 b8 ff ff ff ff    	mov    $0xffffffff,%r8d
  401a3c:	85 db                	test   %ebx,%ebx
  401a3e:	74 07                	je     401a47 <notify_server+0x6b>
  401a40:	b9 b1 30 40 00       	mov    $0x4030b1,%ecx
  401a45:	eb 05                	jmp    401a4c <notify_server+0x70>
  401a47:	b9 b6 30 40 00       	mov    $0x4030b6,%ecx
  401a4c:	48 c7 44 24 08 20 45 	movq   $0x604520,0x8(%rsp)
  401a53:	60 00 
  401a55:	89 34 24             	mov    %esi,(%rsp)
  401a58:	8b 15 0a 27 20 00    	mov    0x20270a(%rip),%edx        # 604168 <target_id>
  401a5e:	be bb 30 40 00       	mov    $0x4030bb,%esi
  401a63:	48 8d bc 24 10 20 00 	lea    0x2010(%rsp),%rdi
  401a6a:	00 
  401a6b:	b8 00 00 00 00       	mov    $0x0,%eax
  401a70:	e8 6b f3 ff ff       	callq  400de0 <sprintf@plt>
  401a75:	83 3d 2c 2a 20 00 00 	cmpl   $0x0,0x202a2c(%rip)        # 6044a8 <notify>
  401a7c:	74 78                	je     401af6 <notify_server+0x11a>
  401a7e:	85 db                	test   %ebx,%ebx
  401a80:	74 68                	je     401aea <notify_server+0x10e>
  401a82:	4c 8d 4c 24 10       	lea    0x10(%rsp),%r9
  401a87:	41 b8 00 00 00 00    	mov    $0x0,%r8d
  401a8d:	48 8d 8c 24 10 20 00 	lea    0x2010(%rsp),%rcx
  401a94:	00 
  401a95:	48 8b 15 d4 26 20 00 	mov    0x2026d4(%rip),%rdx        # 604170 <lab>
  401a9c:	48 8b 35 d5 26 20 00 	mov    0x2026d5(%rip),%rsi        # 604178 <course>
  401aa3:	48 8b 3d b6 26 20 00 	mov    0x2026b6(%rip),%rdi        # 604160 <user_id>
  401aaa:	e8 94 0f 00 00       	callq  402a43 <driver_post>
  401aaf:	85 c0                	test   %eax,%eax
  401ab1:	79 1e                	jns    401ad1 <notify_server+0xf5>
  401ab3:	48 8d 74 24 10       	lea    0x10(%rsp),%rsi
  401ab8:	bf d7 30 40 00       	mov    $0x4030d7,%edi
  401abd:	b8 00 00 00 00       	mov    $0x0,%eax
  401ac2:	e8 b9 f1 ff ff       	callq  400c80 <printf@plt>
  401ac7:	bf 01 00 00 00       	mov    $0x1,%edi
  401acc:	e8 1f f3 ff ff       	callq  400df0 <exit@plt>
  401ad1:	bf 00 32 40 00       	mov    $0x403200,%edi
  401ad6:	e8 75 f1 ff ff       	callq  400c50 <puts@plt>
  401adb:	bf e3 30 40 00       	mov    $0x4030e3,%edi
  401ae0:	e8 6b f1 ff ff       	callq  400c50 <puts@plt>
  401ae5:	e9 85 00 00 00       	jmpq   401b6f <notify_server+0x193>
  401aea:	bf ed 30 40 00       	mov    $0x4030ed,%edi
  401aef:	e8 5c f1 ff ff       	callq  400c50 <puts@plt>
  401af4:	eb 79                	jmp    401b6f <notify_server+0x193>
  401af6:	85 db                	test   %ebx,%ebx
  401af8:	74 08                	je     401b02 <notify_server+0x126>
  401afa:	be b1 30 40 00       	mov    $0x4030b1,%esi
  401aff:	90                   	nop
  401b00:	eb 05                	jmp    401b07 <notify_server+0x12b>
  401b02:	be b6 30 40 00       	mov    $0x4030b6,%esi
  401b07:	bf 38 32 40 00       	mov    $0x403238,%edi
  401b0c:	b8 00 00 00 00       	mov    $0x0,%eax
  401b11:	e8 6a f1 ff ff       	callq  400c80 <printf@plt>
  401b16:	48 8b 35 43 26 20 00 	mov    0x202643(%rip),%rsi        # 604160 <user_id>
  401b1d:	bf f4 30 40 00       	mov    $0x4030f4,%edi
  401b22:	b8 00 00 00 00       	mov    $0x0,%eax
  401b27:	e8 54 f1 ff ff       	callq  400c80 <printf@plt>
  401b2c:	48 8b 35 45 26 20 00 	mov    0x202645(%rip),%rsi        # 604178 <course>
  401b33:	bf 01 31 40 00       	mov    $0x403101,%edi
  401b38:	b8 00 00 00 00       	mov    $0x0,%eax
  401b3d:	e8 3e f1 ff ff       	callq  400c80 <printf@plt>
  401b42:	48 8b 35 27 26 20 00 	mov    0x202627(%rip),%rsi        # 604170 <lab>
  401b49:	bf 0d 31 40 00       	mov    $0x40310d,%edi
  401b4e:	b8 00 00 00 00       	mov    $0x0,%eax
  401b53:	e8 28 f1 ff ff       	callq  400c80 <printf@plt>
  401b58:	48 8d b4 24 10 20 00 	lea    0x2010(%rsp),%rsi
  401b5f:	00 
  401b60:	bf 16 31 40 00       	mov    $0x403116,%edi
  401b65:	b8 00 00 00 00       	mov    $0x0,%eax
  401b6a:	e8 11 f1 ff ff       	callq  400c80 <printf@plt>
  401b6f:	48 81 c4 10 40 00 00 	add    $0x4010,%rsp
  401b76:	5b                   	pop    %rbx
  401b77:	f3 c3                	repz retq 

0000000000401b79 <validate>:
  401b79:	53                   	push   %rbx
  401b7a:	89 fb                	mov    %edi,%ebx
  401b7c:	83 3d 85 29 20 00 00 	cmpl   $0x0,0x202985(%rip)        # 604508 <is_checker>
  401b83:	74 60                	je     401be5 <validate+0x6c>
  401b85:	39 3d 71 29 20 00    	cmp    %edi,0x202971(%rip)        # 6044fc <vlevel>
  401b8b:	74 14                	je     401ba1 <validate+0x28>
  401b8d:	bf 22 31 40 00       	mov    $0x403122,%edi
  401b92:	e8 b9 f0 ff ff       	callq  400c50 <puts@plt>
  401b97:	b8 00 00 00 00       	mov    $0x0,%eax
  401b9c:	e8 ba fd ff ff       	callq  40195b <check_fail>
  401ba1:	8b 35 51 29 20 00    	mov    0x202951(%rip),%esi        # 6044f8 <check_level>
  401ba7:	39 fe                	cmp    %edi,%esi
  401ba9:	74 1b                	je     401bc6 <validate+0x4d>
  401bab:	89 fa                	mov    %edi,%edx
  401bad:	bf 60 32 40 00       	mov    $0x403260,%edi
  401bb2:	b8 00 00 00 00       	mov    $0x0,%eax
  401bb7:	e8 c4 f0 ff ff       	callq  400c80 <printf@plt>
  401bbc:	b8 00 00 00 00       	mov    $0x0,%eax
  401bc1:	e8 95 fd ff ff       	callq  40195b <check_fail>
  401bc6:	0f be 35 5b 35 20 00 	movsbl 0x20355b(%rip),%esi        # 605128 <target_prefix>
  401bcd:	b9 20 45 60 00       	mov    $0x604520,%ecx
  401bd2:	89 fa                	mov    %edi,%edx
  401bd4:	bf 40 31 40 00       	mov    $0x403140,%edi
  401bd9:	b8 00 00 00 00       	mov    $0x0,%eax
  401bde:	e8 9d f0 ff ff       	callq  400c80 <printf@plt>
  401be3:	eb 44                	jmp    401c29 <validate+0xb0>
  401be5:	39 3d 11 29 20 00    	cmp    %edi,0x202911(%rip)        # 6044fc <vlevel>
  401beb:	74 18                	je     401c05 <validate+0x8c>
  401bed:	bf 22 31 40 00       	mov    $0x403122,%edi
  401bf2:	e8 59 f0 ff ff       	callq  400c50 <puts@plt>
  401bf7:	89 de                	mov    %ebx,%esi
  401bf9:	bf 00 00 00 00       	mov    $0x0,%edi
  401bfe:	e8 d9 fd ff ff       	callq  4019dc <notify_server>
  401c03:	eb 24                	jmp    401c29 <validate+0xb0>
  401c05:	0f be 15 1c 35 20 00 	movsbl 0x20351c(%rip),%edx        # 605128 <target_prefix>
  401c0c:	89 fe                	mov    %edi,%esi
  401c0e:	bf 88 32 40 00       	mov    $0x403288,%edi
  401c13:	b8 00 00 00 00       	mov    $0x0,%eax
  401c18:	e8 63 f0 ff ff       	callq  400c80 <printf@plt>
  401c1d:	89 de                	mov    %ebx,%esi
  401c1f:	bf 01 00 00 00       	mov    $0x1,%edi
  401c24:	e8 b3 fd ff ff       	callq  4019dc <notify_server>
  401c29:	5b                   	pop    %rbx
  401c2a:	c3                   	retq   

0000000000401c2b <fail>:
  401c2b:	48 83 ec 08          	sub    $0x8,%rsp
  401c2f:	83 3d d2 28 20 00 00 	cmpl   $0x0,0x2028d2(%rip)        # 604508 <is_checker>
  401c36:	74 0a                	je     401c42 <fail+0x17>
  401c38:	b8 00 00 00 00       	mov    $0x0,%eax
  401c3d:	e8 19 fd ff ff       	callq  40195b <check_fail>
  401c42:	89 fe                	mov    %edi,%esi
  401c44:	bf 00 00 00 00       	mov    $0x0,%edi
  401c49:	e8 8e fd ff ff       	callq  4019dc <notify_server>
  401c4e:	48 83 c4 08          	add    $0x8,%rsp
  401c52:	c3                   	retq   

0000000000401c53 <bushandler>:
  401c53:	48 83 ec 08          	sub    $0x8,%rsp
  401c57:	83 3d aa 28 20 00 00 	cmpl   $0x0,0x2028aa(%rip)        # 604508 <is_checker>
  401c5e:	74 14                	je     401c74 <bushandler+0x21>
  401c60:	bf 55 31 40 00       	mov    $0x403155,%edi
  401c65:	e8 e6 ef ff ff       	callq  400c50 <puts@plt>
  401c6a:	b8 00 00 00 00       	mov    $0x0,%eax
  401c6f:	e8 e7 fc ff ff       	callq  40195b <check_fail>
  401c74:	bf c0 32 40 00       	mov    $0x4032c0,%edi
  401c79:	e8 d2 ef ff ff       	callq  400c50 <puts@plt>
  401c7e:	bf 5f 31 40 00       	mov    $0x40315f,%edi
  401c83:	e8 c8 ef ff ff       	callq  400c50 <puts@plt>
  401c88:	be 00 00 00 00       	mov    $0x0,%esi
  401c8d:	bf 00 00 00 00       	mov    $0x0,%edi
  401c92:	e8 45 fd ff ff       	callq  4019dc <notify_server>
  401c97:	bf 01 00 00 00       	mov    $0x1,%edi
  401c9c:	e8 4f f1 ff ff       	callq  400df0 <exit@plt>

0000000000401ca1 <seghandler>:
  401ca1:	48 83 ec 08          	sub    $0x8,%rsp
  401ca5:	83 3d 5c 28 20 00 00 	cmpl   $0x0,0x20285c(%rip)        # 604508 <is_checker>
  401cac:	74 14                	je     401cc2 <seghandler+0x21>
  401cae:	bf 75 31 40 00       	mov    $0x403175,%edi
  401cb3:	e8 98 ef ff ff       	callq  400c50 <puts@plt>
  401cb8:	b8 00 00 00 00       	mov    $0x0,%eax
  401cbd:	e8 99 fc ff ff       	callq  40195b <check_fail>
  401cc2:	bf e0 32 40 00       	mov    $0x4032e0,%edi
  401cc7:	e8 84 ef ff ff       	callq  400c50 <puts@plt>
  401ccc:	bf 5f 31 40 00       	mov    $0x40315f,%edi
  401cd1:	e8 7a ef ff ff       	callq  400c50 <puts@plt>
  401cd6:	be 00 00 00 00       	mov    $0x0,%esi
  401cdb:	bf 00 00 00 00       	mov    $0x0,%edi
  401ce0:	e8 f7 fc ff ff       	callq  4019dc <notify_server>
  401ce5:	bf 01 00 00 00       	mov    $0x1,%edi
  401cea:	e8 01 f1 ff ff       	callq  400df0 <exit@plt>

0000000000401cef <illegalhandler>:
  401cef:	48 83 ec 08          	sub    $0x8,%rsp
  401cf3:	83 3d 0e 28 20 00 00 	cmpl   $0x0,0x20280e(%rip)        # 604508 <is_checker>
  401cfa:	74 14                	je     401d10 <illegalhandler+0x21>
  401cfc:	bf 88 31 40 00       	mov    $0x403188,%edi
  401d01:	e8 4a ef ff ff       	callq  400c50 <puts@plt>
  401d06:	b8 00 00 00 00       	mov    $0x0,%eax
  401d0b:	e8 4b fc ff ff       	callq  40195b <check_fail>
  401d10:	bf 08 33 40 00       	mov    $0x403308,%edi
  401d15:	e8 36 ef ff ff       	callq  400c50 <puts@plt>
  401d1a:	bf 5f 31 40 00       	mov    $0x40315f,%edi
  401d1f:	e8 2c ef ff ff       	callq  400c50 <puts@plt>
  401d24:	be 00 00 00 00       	mov    $0x0,%esi
  401d29:	bf 00 00 00 00       	mov    $0x0,%edi
  401d2e:	e8 a9 fc ff ff       	callq  4019dc <notify_server>
  401d33:	bf 01 00 00 00       	mov    $0x1,%edi
  401d38:	e8 b3 f0 ff ff       	callq  400df0 <exit@plt>

0000000000401d3d <sigalrmhandler>:
  401d3d:	48 83 ec 08          	sub    $0x8,%rsp
  401d41:	83 3d c0 27 20 00 00 	cmpl   $0x0,0x2027c0(%rip)        # 604508 <is_checker>
  401d48:	74 14                	je     401d5e <sigalrmhandler+0x21>
  401d4a:	bf 9c 31 40 00       	mov    $0x40319c,%edi
  401d4f:	e8 fc ee ff ff       	callq  400c50 <puts@plt>
  401d54:	b8 00 00 00 00       	mov    $0x0,%eax
  401d59:	e8 fd fb ff ff       	callq  40195b <check_fail>
  401d5e:	be 05 00 00 00       	mov    $0x5,%esi
  401d63:	bf 38 33 40 00       	mov    $0x403338,%edi
  401d68:	b8 00 00 00 00       	mov    $0x0,%eax
  401d6d:	e8 0e ef ff ff       	callq  400c80 <printf@plt>
  401d72:	be 00 00 00 00       	mov    $0x0,%esi
  401d77:	bf 00 00 00 00       	mov    $0x0,%edi
  401d7c:	e8 5b fc ff ff       	callq  4019dc <notify_server>
  401d81:	bf 01 00 00 00       	mov    $0x1,%edi
  401d86:	e8 65 f0 ff ff       	callq  400df0 <exit@plt>

0000000000401d8b <launch>:
  401d8b:	55                   	push   %rbp
  401d8c:	48 89 e5             	mov    %rsp,%rbp
  401d8f:	48 89 fa             	mov    %rdi,%rdx
  401d92:	48 8d 47 1e          	lea    0x1e(%rdi),%rax
  401d96:	48 83 e0 f0          	and    $0xfffffffffffffff0,%rax
  401d9a:	48 29 c4             	sub    %rax,%rsp
  401d9d:	48 8d 7c 24 0f       	lea    0xf(%rsp),%rdi
  401da2:	48 83 e7 f0          	and    $0xfffffffffffffff0,%rdi
  401da6:	be f4 00 00 00       	mov    $0xf4,%esi
  401dab:	e8 e0 ee ff ff       	callq  400c90 <memset@plt>
  401db0:	48 8b 05 09 27 20 00 	mov    0x202709(%rip),%rax        # 6044c0 <stdin@@GLIBC_2.2.5>
  401db7:	48 39 05 32 27 20 00 	cmp    %rax,0x202732(%rip)        # 6044f0 <infile>
  401dbe:	75 0f                	jne    401dcf <launch+0x44>
  401dc0:	bf a4 31 40 00       	mov    $0x4031a4,%edi
  401dc5:	b8 00 00 00 00       	mov    $0x0,%eax
  401dca:	e8 b1 ee ff ff       	callq  400c80 <printf@plt>
  401dcf:	c7 05 23 27 20 00 00 	movl   $0x0,0x202723(%rip)        # 6044fc <vlevel>
  401dd6:	00 00 00 
  401dd9:	b8 00 00 00 00       	mov    $0x0,%eax
  401dde:	e8 e3 fa ff ff       	callq  4018c6 <test>
  401de3:	83 3d 1e 27 20 00 00 	cmpl   $0x0,0x20271e(%rip)        # 604508 <is_checker>
  401dea:	74 14                	je     401e00 <launch+0x75>
  401dec:	bf b1 31 40 00       	mov    $0x4031b1,%edi
  401df1:	e8 5a ee ff ff       	callq  400c50 <puts@plt>
  401df6:	b8 00 00 00 00       	mov    $0x0,%eax
  401dfb:	e8 5b fb ff ff       	callq  40195b <check_fail>
  401e00:	bf bc 31 40 00       	mov    $0x4031bc,%edi
  401e05:	e8 46 ee ff ff       	callq  400c50 <puts@plt>
  401e0a:	c9                   	leaveq 
  401e0b:	c3                   	retq   

0000000000401e0c <stable_launch>:
  401e0c:	53                   	push   %rbx
  401e0d:	48 89 3d d4 26 20 00 	mov    %rdi,0x2026d4(%rip)        # 6044e8 <global_offset>
  401e14:	41 b9 00 00 00 00    	mov    $0x0,%r9d
  401e1a:	41 b8 00 00 00 00    	mov    $0x0,%r8d
  401e20:	b9 32 01 00 00       	mov    $0x132,%ecx
  401e25:	ba 07 00 00 00       	mov    $0x7,%edx
  401e2a:	be 00 00 10 00       	mov    $0x100000,%esi
  401e2f:	bf 00 60 58 55       	mov    $0x55586000,%edi
  401e34:	e8 37 ee ff ff       	callq  400c70 <mmap@plt>
  401e39:	48 89 c3             	mov    %rax,%rbx
  401e3c:	48 3d 00 60 58 55    	cmp    $0x55586000,%rax
  401e42:	74 32                	je     401e76 <stable_launch+0x6a>
  401e44:	be 00 00 10 00       	mov    $0x100000,%esi
  401e49:	48 89 c7             	mov    %rax,%rdi
  401e4c:	e8 2f ef ff ff       	callq  400d80 <munmap@plt>
  401e51:	ba 00 60 58 55       	mov    $0x55586000,%edx
  401e56:	be 70 33 40 00       	mov    $0x403370,%esi
  401e5b:	48 8b 3d 6e 26 20 00 	mov    0x20266e(%rip),%rdi        # 6044d0 <stderr@@GLIBC_2.2.5>
  401e62:	b8 00 00 00 00       	mov    $0x0,%eax
  401e67:	e8 94 ee ff ff       	callq  400d00 <fprintf@plt>
  401e6c:	bf 01 00 00 00       	mov    $0x1,%edi
  401e71:	e8 7a ef ff ff       	callq  400df0 <exit@plt>
  401e76:	48 8d 90 f8 ff 0f 00 	lea    0xffff8(%rax),%rdx
  401e7d:	48 89 15 ac 32 20 00 	mov    %rdx,0x2032ac(%rip)        # 605130 <stack_top>
  401e84:	48 89 e0             	mov    %rsp,%rax
  401e87:	48 89 d4             	mov    %rdx,%rsp
  401e8a:	48 89 c2             	mov    %rax,%rdx
  401e8d:	48 89 15 4c 26 20 00 	mov    %rdx,0x20264c(%rip)        # 6044e0 <global_save_stack>
  401e94:	48 8b 3d 4d 26 20 00 	mov    0x20264d(%rip),%rdi        # 6044e8 <global_offset>
  401e9b:	e8 eb fe ff ff       	callq  401d8b <launch>
  401ea0:	48 8b 05 39 26 20 00 	mov    0x202639(%rip),%rax        # 6044e0 <global_save_stack>
  401ea7:	48 89 c4             	mov    %rax,%rsp
  401eaa:	be 00 00 10 00       	mov    $0x100000,%esi
  401eaf:	48 89 df             	mov    %rbx,%rdi
  401eb2:	e8 c9 ee ff ff       	callq  400d80 <munmap@plt>
  401eb7:	5b                   	pop    %rbx
  401eb8:	c3                   	retq   
  401eb9:	0f 1f 80 00 00 00 00 	nopl   0x0(%rax)

0000000000401ec0 <rio_readinitb>:
  401ec0:	89 37                	mov    %esi,(%rdi)
  401ec2:	c7 47 04 00 00 00 00 	movl   $0x0,0x4(%rdi)
  401ec9:	48 8d 47 10          	lea    0x10(%rdi),%rax
  401ecd:	48 89 47 08          	mov    %rax,0x8(%rdi)
  401ed1:	c3                   	retq   

0000000000401ed2 <sigalrm_handler>:
  401ed2:	48 83 ec 08          	sub    $0x8,%rsp
  401ed6:	ba 00 00 00 00       	mov    $0x0,%edx
  401edb:	be b0 33 40 00       	mov    $0x4033b0,%esi
  401ee0:	48 8b 3d e9 25 20 00 	mov    0x2025e9(%rip),%rdi        # 6044d0 <stderr@@GLIBC_2.2.5>
  401ee7:	b8 00 00 00 00       	mov    $0x0,%eax
  401eec:	e8 0f ee ff ff       	callq  400d00 <fprintf@plt>
  401ef1:	bf 01 00 00 00       	mov    $0x1,%edi
  401ef6:	e8 f5 ee ff ff       	callq  400df0 <exit@plt>

0000000000401efb <urlencode>:
  401efb:	41 54                	push   %r12
  401efd:	55                   	push   %rbp
  401efe:	53                   	push   %rbx
  401eff:	48 83 ec 10          	sub    $0x10,%rsp
  401f03:	48 89 fb             	mov    %rdi,%rbx
  401f06:	48 89 f5             	mov    %rsi,%rbp
  401f09:	b8 00 00 00 00       	mov    $0x0,%eax
  401f0e:	48 c7 c1 ff ff ff ff 	mov    $0xffffffffffffffff,%rcx
  401f15:	f2 ae                	repnz scas %es:(%rdi),%al
  401f17:	48 f7 d1             	not    %rcx
  401f1a:	8d 41 ff             	lea    -0x1(%rcx),%eax
  401f1d:	e9 93 00 00 00       	jmpq   401fb5 <urlencode+0xba>
  401f22:	0f b6 13             	movzbl (%rbx),%edx
  401f25:	80 fa 2a             	cmp    $0x2a,%dl
  401f28:	0f 94 c1             	sete   %cl
  401f2b:	80 fa 2d             	cmp    $0x2d,%dl
  401f2e:	0f 94 c0             	sete   %al
  401f31:	08 c1                	or     %al,%cl
  401f33:	75 1f                	jne    401f54 <urlencode+0x59>
  401f35:	80 fa 2e             	cmp    $0x2e,%dl
  401f38:	74 1a                	je     401f54 <urlencode+0x59>
  401f3a:	80 fa 5f             	cmp    $0x5f,%dl
  401f3d:	74 15                	je     401f54 <urlencode+0x59>
  401f3f:	8d 42 d0             	lea    -0x30(%rdx),%eax
  401f42:	3c 09                	cmp    $0x9,%al
  401f44:	76 0e                	jbe    401f54 <urlencode+0x59>
  401f46:	8d 42 bf             	lea    -0x41(%rdx),%eax
  401f49:	3c 19                	cmp    $0x19,%al
  401f4b:	76 07                	jbe    401f54 <urlencode+0x59>
  401f4d:	8d 42 9f             	lea    -0x61(%rdx),%eax
  401f50:	3c 19                	cmp    $0x19,%al
  401f52:	77 09                	ja     401f5d <urlencode+0x62>
  401f54:	88 55 00             	mov    %dl,0x0(%rbp)
  401f57:	48 8d 6d 01          	lea    0x1(%rbp),%rbp
  401f5b:	eb 51                	jmp    401fae <urlencode+0xb3>
  401f5d:	80 fa 20             	cmp    $0x20,%dl
  401f60:	75 0a                	jne    401f6c <urlencode+0x71>
  401f62:	c6 45 00 2b          	movb   $0x2b,0x0(%rbp)
  401f66:	48 8d 6d 01          	lea    0x1(%rbp),%rbp
  401f6a:	eb 42                	jmp    401fae <urlencode+0xb3>
  401f6c:	8d 42 e0             	lea    -0x20(%rdx),%eax
  401f6f:	3c 5f                	cmp    $0x5f,%al
  401f71:	0f 96 c1             	setbe  %cl
  401f74:	80 fa 09             	cmp    $0x9,%dl
  401f77:	0f 94 c0             	sete   %al
  401f7a:	08 c1                	or     %al,%cl
  401f7c:	74 45                	je     401fc3 <urlencode+0xc8>
  401f7e:	0f b6 d2             	movzbl %dl,%edx
  401f81:	be 48 34 40 00       	mov    $0x403448,%esi
  401f86:	48 89 e7             	mov    %rsp,%rdi
  401f89:	b8 00 00 00 00       	mov    $0x0,%eax
  401f8e:	e8 4d ee ff ff       	callq  400de0 <sprintf@plt>
  401f93:	0f b6 04 24          	movzbl (%rsp),%eax
  401f97:	88 45 00             	mov    %al,0x0(%rbp)
  401f9a:	0f b6 44 24 01       	movzbl 0x1(%rsp),%eax
  401f9f:	88 45 01             	mov    %al,0x1(%rbp)
  401fa2:	0f b6 44 24 02       	movzbl 0x2(%rsp),%eax
  401fa7:	88 45 02             	mov    %al,0x2(%rbp)
  401faa:	48 8d 6d 03          	lea    0x3(%rbp),%rbp
  401fae:	48 83 c3 01          	add    $0x1,%rbx
  401fb2:	44 89 e0             	mov    %r12d,%eax
  401fb5:	44 8d 60 ff          	lea    -0x1(%rax),%r12d
  401fb9:	85 c0                	test   %eax,%eax
  401fbb:	0f 85 61 ff ff ff    	jne    401f22 <urlencode+0x27>
  401fc1:	eb 05                	jmp    401fc8 <urlencode+0xcd>
  401fc3:	b8 ff ff ff ff       	mov    $0xffffffff,%eax
  401fc8:	48 83 c4 10          	add    $0x10,%rsp
  401fcc:	5b                   	pop    %rbx
  401fcd:	5d                   	pop    %rbp
  401fce:	41 5c                	pop    %r12
  401fd0:	c3                   	retq   

0000000000401fd1 <rio_writen>:
  401fd1:	41 55                	push   %r13
  401fd3:	41 54                	push   %r12
  401fd5:	55                   	push   %rbp
  401fd6:	53                   	push   %rbx
  401fd7:	48 83 ec 08          	sub    $0x8,%rsp
  401fdb:	41 89 fc             	mov    %edi,%r12d
  401fde:	48 89 f5             	mov    %rsi,%rbp
  401fe1:	49 89 d5             	mov    %rdx,%r13
  401fe4:	48 89 d3             	mov    %rdx,%rbx
  401fe7:	eb 28                	jmp    402011 <rio_writen+0x40>
  401fe9:	48 89 da             	mov    %rbx,%rdx
  401fec:	48 89 ee             	mov    %rbp,%rsi
  401fef:	44 89 e7             	mov    %r12d,%edi
  401ff2:	e8 69 ec ff ff       	callq  400c60 <write@plt>
  401ff7:	48 85 c0             	test   %rax,%rax
  401ffa:	7f 0f                	jg     40200b <rio_writen+0x3a>
  401ffc:	e8 0f ec ff ff       	callq  400c10 <__errno_location@plt>
  402001:	83 38 04             	cmpl   $0x4,(%rax)
  402004:	75 15                	jne    40201b <rio_writen+0x4a>
  402006:	b8 00 00 00 00       	mov    $0x0,%eax
  40200b:	48 29 c3             	sub    %rax,%rbx
  40200e:	48 01 c5             	add    %rax,%rbp
  402011:	48 85 db             	test   %rbx,%rbx
  402014:	75 d3                	jne    401fe9 <rio_writen+0x18>
  402016:	4c 89 e8             	mov    %r13,%rax
  402019:	eb 07                	jmp    402022 <rio_writen+0x51>
  40201b:	48 c7 c0 ff ff ff ff 	mov    $0xffffffffffffffff,%rax
  402022:	48 83 c4 08          	add    $0x8,%rsp
  402026:	5b                   	pop    %rbx
  402027:	5d                   	pop    %rbp
  402028:	41 5c                	pop    %r12
  40202a:	41 5d                	pop    %r13
  40202c:	c3                   	retq   

000000000040202d <rio_read>:
  40202d:	41 56                	push   %r14
  40202f:	41 55                	push   %r13
  402031:	41 54                	push   %r12
  402033:	55                   	push   %rbp
  402034:	53                   	push   %rbx
  402035:	48 89 fb             	mov    %rdi,%rbx
  402038:	49 89 f6             	mov    %rsi,%r14
  40203b:	49 89 d5             	mov    %rdx,%r13
  40203e:	4c 8d 67 10          	lea    0x10(%rdi),%r12
  402042:	eb 2a                	jmp    40206e <rio_read+0x41>
  402044:	ba 00 20 00 00       	mov    $0x2000,%edx
  402049:	4c 89 e6             	mov    %r12,%rsi
  40204c:	8b 3b                	mov    (%rbx),%edi
  40204e:	e8 6d ec ff ff       	callq  400cc0 <read@plt>
  402053:	89 43 04             	mov    %eax,0x4(%rbx)
  402056:	85 c0                	test   %eax,%eax
  402058:	79 0c                	jns    402066 <rio_read+0x39>
  40205a:	e8 b1 eb ff ff       	callq  400c10 <__errno_location@plt>
  40205f:	83 38 04             	cmpl   $0x4,(%rax)
  402062:	74 0a                	je     40206e <rio_read+0x41>
  402064:	eb 37                	jmp    40209d <rio_read+0x70>
  402066:	85 c0                	test   %eax,%eax
  402068:	74 3c                	je     4020a6 <rio_read+0x79>
  40206a:	4c 89 63 08          	mov    %r12,0x8(%rbx)
  40206e:	8b 6b 04             	mov    0x4(%rbx),%ebp
  402071:	85 ed                	test   %ebp,%ebp
  402073:	7e cf                	jle    402044 <rio_read+0x17>
  402075:	89 e8                	mov    %ebp,%eax
  402077:	4c 39 e8             	cmp    %r13,%rax
  40207a:	72 03                	jb     40207f <rio_read+0x52>
  40207c:	44 89 ed             	mov    %r13d,%ebp
  40207f:	4c 63 e5             	movslq %ebp,%r12
  402082:	48 8b 73 08          	mov    0x8(%rbx),%rsi
  402086:	4c 89 e2             	mov    %r12,%rdx
  402089:	4c 89 f7             	mov    %r14,%rdi
  40208c:	e8 9f ec ff ff       	callq  400d30 <memcpy@plt>
  402091:	4c 01 63 08          	add    %r12,0x8(%rbx)
  402095:	29 6b 04             	sub    %ebp,0x4(%rbx)
  402098:	4c 89 e0             	mov    %r12,%rax
  40209b:	eb 0e                	jmp    4020ab <rio_read+0x7e>
  40209d:	48 c7 c0 ff ff ff ff 	mov    $0xffffffffffffffff,%rax
  4020a4:	eb 05                	jmp    4020ab <rio_read+0x7e>
  4020a6:	b8 00 00 00 00       	mov    $0x0,%eax
  4020ab:	5b                   	pop    %rbx
  4020ac:	5d                   	pop    %rbp
  4020ad:	41 5c                	pop    %r12
  4020af:	41 5d                	pop    %r13
  4020b1:	41 5e                	pop    %r14
  4020b3:	c3                   	retq   

00000000004020b4 <rio_readlineb>:
  4020b4:	41 55                	push   %r13
  4020b6:	41 54                	push   %r12
  4020b8:	55                   	push   %rbp
  4020b9:	53                   	push   %rbx
  4020ba:	48 83 ec 18          	sub    $0x18,%rsp
  4020be:	49 89 fd             	mov    %rdi,%r13
  4020c1:	48 89 f5             	mov    %rsi,%rbp
  4020c4:	49 89 d4             	mov    %rdx,%r12
  4020c7:	bb 01 00 00 00       	mov    $0x1,%ebx
  4020cc:	eb 3d                	jmp    40210b <rio_readlineb+0x57>
  4020ce:	ba 01 00 00 00       	mov    $0x1,%edx
  4020d3:	48 8d 74 24 0f       	lea    0xf(%rsp),%rsi
  4020d8:	4c 89 ef             	mov    %r13,%rdi
  4020db:	e8 4d ff ff ff       	callq  40202d <rio_read>
  4020e0:	83 f8 01             	cmp    $0x1,%eax
  4020e3:	75 12                	jne    4020f7 <rio_readlineb+0x43>
  4020e5:	48 8d 55 01          	lea    0x1(%rbp),%rdx
  4020e9:	0f b6 44 24 0f       	movzbl 0xf(%rsp),%eax
  4020ee:	88 45 00             	mov    %al,0x0(%rbp)
  4020f1:	3c 0a                	cmp    $0xa,%al
  4020f3:	75 0f                	jne    402104 <rio_readlineb+0x50>
  4020f5:	eb 1b                	jmp    402112 <rio_readlineb+0x5e>
  4020f7:	85 c0                	test   %eax,%eax
  4020f9:	75 23                	jne    40211e <rio_readlineb+0x6a>
  4020fb:	48 83 fb 01          	cmp    $0x1,%rbx
  4020ff:	90                   	nop
  402100:	75 13                	jne    402115 <rio_readlineb+0x61>
  402102:	eb 23                	jmp    402127 <rio_readlineb+0x73>
  402104:	48 83 c3 01          	add    $0x1,%rbx
  402108:	48 89 d5             	mov    %rdx,%rbp
  40210b:	4c 39 e3             	cmp    %r12,%rbx
  40210e:	72 be                	jb     4020ce <rio_readlineb+0x1a>
  402110:	eb 03                	jmp    402115 <rio_readlineb+0x61>
  402112:	48 89 d5             	mov    %rdx,%rbp
  402115:	c6 45 00 00          	movb   $0x0,0x0(%rbp)
  402119:	48 89 d8             	mov    %rbx,%rax
  40211c:	eb 0e                	jmp    40212c <rio_readlineb+0x78>
  40211e:	48 c7 c0 ff ff ff ff 	mov    $0xffffffffffffffff,%rax
  402125:	eb 05                	jmp    40212c <rio_readlineb+0x78>
  402127:	b8 00 00 00 00       	mov    $0x0,%eax
  40212c:	48 83 c4 18          	add    $0x18,%rsp
  402130:	5b                   	pop    %rbx
  402131:	5d                   	pop    %rbp
  402132:	41 5c                	pop    %r12
  402134:	41 5d                	pop    %r13
  402136:	c3                   	retq   

0000000000402137 <submitr>:
  402137:	41 57                	push   %r15
  402139:	41 56                	push   %r14
  40213b:	41 55                	push   %r13
  40213d:	41 54                	push   %r12
  40213f:	55                   	push   %rbp
  402140:	53                   	push   %rbx
  402141:	48 81 ec 48 a0 00 00 	sub    $0xa048,%rsp
  402148:	49 89 fc             	mov    %rdi,%r12
  40214b:	89 74 24 04          	mov    %esi,0x4(%rsp)
  40214f:	49 89 d7             	mov    %rdx,%r15
  402152:	49 89 ce             	mov    %rcx,%r14
  402155:	4c 89 44 24 08       	mov    %r8,0x8(%rsp)
  40215a:	4d 89 cd             	mov    %r9,%r13
  40215d:	48 8b 9c 24 80 a0 00 	mov    0xa080(%rsp),%rbx
  402164:	00 
  402165:	c7 84 24 1c 20 00 00 	movl   $0x0,0x201c(%rsp)
  40216c:	00 00 00 00 
  402170:	ba 00 00 00 00       	mov    $0x0,%edx
  402175:	be 01 00 00 00       	mov    $0x1,%esi
  40217a:	bf 02 00 00 00       	mov    $0x2,%edi
  40217f:	e8 8c ec ff ff       	callq  400e10 <socket@plt>
  402184:	89 c5                	mov    %eax,%ebp
  402186:	85 c0                	test   %eax,%eax
  402188:	79 4e                	jns    4021d8 <submitr+0xa1>
  40218a:	48 b8 45 72 72 6f 72 	movabs $0x43203a726f727245,%rax
  402191:	3a 20 43 
  402194:	48 89 03             	mov    %rax,(%rbx)
  402197:	48 b8 6c 69 65 6e 74 	movabs $0x6e7520746e65696c,%rax
  40219e:	20 75 6e 
  4021a1:	48 89 43 08          	mov    %rax,0x8(%rbx)
  4021a5:	48 b8 61 62 6c 65 20 	movabs $0x206f7420656c6261,%rax
  4021ac:	74 6f 20 
  4021af:	48 89 43 10          	mov    %rax,0x10(%rbx)
  4021b3:	48 b8 63 72 65 61 74 	movabs $0x7320657461657263,%rax
  4021ba:	65 20 73 
  4021bd:	48 89 43 18          	mov    %rax,0x18(%rbx)
  4021c1:	c7 43 20 6f 63 6b 65 	movl   $0x656b636f,0x20(%rbx)
  4021c8:	66 c7 43 24 74 00    	movw   $0x74,0x24(%rbx)
  4021ce:	b8 ff ff ff ff       	mov    $0xffffffff,%eax
  4021d3:	e9 68 06 00 00       	jmpq   402840 <submitr+0x709>
  4021d8:	4c 89 e7             	mov    %r12,%rdi
  4021db:	e8 10 eb ff ff       	callq  400cf0 <gethostbyname@plt>
  4021e0:	48 85 c0             	test   %rax,%rax
  4021e3:	75 67                	jne    40224c <submitr+0x115>
  4021e5:	48 b8 45 72 72 6f 72 	movabs $0x44203a726f727245,%rax
  4021ec:	3a 20 44 
  4021ef:	48 89 03             	mov    %rax,(%rbx)
  4021f2:	48 b8 4e 53 20 69 73 	movabs $0x6e7520736920534e,%rax
  4021f9:	20 75 6e 
  4021fc:	48 89 43 08          	mov    %rax,0x8(%rbx)
  402200:	48 b8 61 62 6c 65 20 	movabs $0x206f7420656c6261,%rax
  402207:	74 6f 20 
  40220a:	48 89 43 10          	mov    %rax,0x10(%rbx)
  40220e:	48 b8 72 65 73 6f 6c 	movabs $0x2065766c6f736572,%rax
  402215:	76 65 20 
  402218:	48 89 43 18          	mov    %rax,0x18(%rbx)
  40221c:	48 b8 73 65 72 76 65 	movabs $0x6120726576726573,%rax
  402223:	72 20 61 
  402226:	48 89 43 20          	mov    %rax,0x20(%rbx)
  40222a:	c7 43 28 64 64 72 65 	movl   $0x65726464,0x28(%rbx)
  402231:	66 c7 43 2c 73 73    	movw   $0x7373,0x2c(%rbx)
  402237:	c6 43 2e 00          	movb   $0x0,0x2e(%rbx)
  40223b:	89 ef                	mov    %ebp,%edi
  40223d:	e8 6e ea ff ff       	callq  400cb0 <close@plt>
  402242:	b8 ff ff ff ff       	mov    $0xffffffff,%eax
  402247:	e9 f4 05 00 00       	jmpq   402840 <submitr+0x709>
  40224c:	48 c7 84 24 30 a0 00 	movq   $0x0,0xa030(%rsp)
  402253:	00 00 00 00 00 
  402258:	48 c7 84 24 38 a0 00 	movq   $0x0,0xa038(%rsp)
  40225f:	00 00 00 00 00 
  402264:	66 c7 84 24 30 a0 00 	movw   $0x2,0xa030(%rsp)
  40226b:	00 02 00 
  40226e:	48 8b 48 18          	mov    0x18(%rax),%rcx
  402272:	48 63 50 14          	movslq 0x14(%rax),%rdx
  402276:	48 8d b4 24 34 a0 00 	lea    0xa034(%rsp),%rsi
  40227d:	00 
  40227e:	48 8b 39             	mov    (%rcx),%rdi
  402281:	e8 0a eb ff ff       	callq  400d90 <bcopy@plt>
  402286:	0f b7 44 24 04       	movzwl 0x4(%rsp),%eax
  40228b:	66 c1 c8 08          	ror    $0x8,%ax
  40228f:	66 89 84 24 32 a0 00 	mov    %ax,0xa032(%rsp)
  402296:	00 
  402297:	ba 10 00 00 00       	mov    $0x10,%edx
  40229c:	48 8d b4 24 30 a0 00 	lea    0xa030(%rsp),%rsi
  4022a3:	00 
  4022a4:	89 ef                	mov    %ebp,%edi
  4022a6:	e8 55 eb ff ff       	callq  400e00 <connect@plt>
  4022ab:	85 c0                	test   %eax,%eax
  4022ad:	79 59                	jns    402308 <submitr+0x1d1>
  4022af:	48 b8 45 72 72 6f 72 	movabs $0x55203a726f727245,%rax
  4022b6:	3a 20 55 
  4022b9:	48 89 03             	mov    %rax,(%rbx)
  4022bc:	48 b8 6e 61 62 6c 65 	movabs $0x6f7420656c62616e,%rax
  4022c3:	20 74 6f 
  4022c6:	48 89 43 08          	mov    %rax,0x8(%rbx)
  4022ca:	48 b8 20 63 6f 6e 6e 	movabs $0x7463656e6e6f6320,%rax
  4022d1:	65 63 74 
  4022d4:	48 89 43 10          	mov    %rax,0x10(%rbx)
  4022d8:	48 b8 20 74 6f 20 74 	movabs $0x20656874206f7420,%rax
  4022df:	68 65 20 
  4022e2:	48 89 43 18          	mov    %rax,0x18(%rbx)
  4022e6:	c7 43 20 73 65 72 76 	movl   $0x76726573,0x20(%rbx)
  4022ed:	66 c7 43 24 65 72    	movw   $0x7265,0x24(%rbx)
  4022f3:	c6 43 26 00          	movb   $0x0,0x26(%rbx)
  4022f7:	89 ef                	mov    %ebp,%edi
  4022f9:	e8 b2 e9 ff ff       	callq  400cb0 <close@plt>
  4022fe:	b8 ff ff ff ff       	mov    $0xffffffff,%eax
  402303:	e9 38 05 00 00       	jmpq   402840 <submitr+0x709>
  402308:	48 c7 c2 ff ff ff ff 	mov    $0xffffffffffffffff,%rdx
  40230f:	4c 89 ef             	mov    %r13,%rdi
  402312:	b8 00 00 00 00       	mov    $0x0,%eax
  402317:	48 89 d1             	mov    %rdx,%rcx
  40231a:	f2 ae                	repnz scas %es:(%rdi),%al
  40231c:	48 f7 d1             	not    %rcx
  40231f:	48 89 ce             	mov    %rcx,%rsi
  402322:	4c 89 ff             	mov    %r15,%rdi
  402325:	48 89 d1             	mov    %rdx,%rcx
  402328:	f2 ae                	repnz scas %es:(%rdi),%al
  40232a:	48 f7 d1             	not    %rcx
  40232d:	49 89 c8             	mov    %rcx,%r8
  402330:	4c 89 f7             	mov    %r14,%rdi
  402333:	48 89 d1             	mov    %rdx,%rcx
  402336:	f2 ae                	repnz scas %es:(%rdi),%al
  402338:	49 29 c8             	sub    %rcx,%r8
  40233b:	48 8b 7c 24 08       	mov    0x8(%rsp),%rdi
  402340:	48 89 d1             	mov    %rdx,%rcx
  402343:	f2 ae                	repnz scas %es:(%rdi),%al
  402345:	49 29 c8             	sub    %rcx,%r8
  402348:	48 8d 44 76 fd       	lea    -0x3(%rsi,%rsi,2),%rax
  40234d:	49 8d 44 00 7b       	lea    0x7b(%r8,%rax,1),%rax
  402352:	48 3d 00 20 00 00    	cmp    $0x2000,%rax
  402358:	76 72                	jbe    4023cc <submitr+0x295>
  40235a:	48 b8 45 72 72 6f 72 	movabs $0x52203a726f727245,%rax
  402361:	3a 20 52 
  402364:	48 89 03             	mov    %rax,(%rbx)
  402367:	48 b8 65 73 75 6c 74 	movabs $0x747320746c757365,%rax
  40236e:	20 73 74 
  402371:	48 89 43 08          	mov    %rax,0x8(%rbx)
  402375:	48 b8 72 69 6e 67 20 	movabs $0x6f6f7420676e6972,%rax
  40237c:	74 6f 6f 
  40237f:	48 89 43 10          	mov    %rax,0x10(%rbx)
  402383:	48 b8 20 6c 61 72 67 	movabs $0x202e656772616c20,%rax
  40238a:	65 2e 20 
  40238d:	48 89 43 18          	mov    %rax,0x18(%rbx)
  402391:	48 b8 49 6e 63 72 65 	movabs $0x6573616572636e49,%rax
  402398:	61 73 65 
  40239b:	48 89 43 20          	mov    %rax,0x20(%rbx)
  40239f:	48 b8 20 53 55 42 4d 	movabs $0x5254494d42555320,%rax
  4023a6:	49 54 52 
  4023a9:	48 89 43 28          	mov    %rax,0x28(%rbx)
  4023ad:	48 b8 5f 4d 41 58 42 	movabs $0x46554258414d5f,%rax
  4023b4:	55 46 00 
  4023b7:	48 89 43 30          	mov    %rax,0x30(%rbx)
  4023bb:	89 ef                	mov    %ebp,%edi
  4023bd:	e8 ee e8 ff ff       	callq  400cb0 <close@plt>
  4023c2:	b8 ff ff ff ff       	mov    $0xffffffff,%eax
  4023c7:	e9 74 04 00 00       	jmpq   402840 <submitr+0x709>
  4023cc:	48 8d b4 24 20 40 00 	lea    0x4020(%rsp),%rsi
  4023d3:	00 
  4023d4:	b9 00 04 00 00       	mov    $0x400,%ecx
  4023d9:	b8 00 00 00 00       	mov    $0x0,%eax
  4023de:	48 89 f7             	mov    %rsi,%rdi
  4023e1:	f3 48 ab             	rep stos %rax,%es:(%rdi)
  4023e4:	4c 89 ef             	mov    %r13,%rdi
  4023e7:	e8 0f fb ff ff       	callq  401efb <urlencode>
  4023ec:	85 c0                	test   %eax,%eax
  4023ee:	0f 89 8a 00 00 00    	jns    40247e <submitr+0x347>
  4023f4:	48 b8 45 72 72 6f 72 	movabs $0x52203a726f727245,%rax
  4023fb:	3a 20 52 
  4023fe:	48 89 03             	mov    %rax,(%rbx)
  402401:	48 b8 65 73 75 6c 74 	movabs $0x747320746c757365,%rax
  402408:	20 73 74 
  40240b:	48 89 43 08          	mov    %rax,0x8(%rbx)
  40240f:	48 b8 72 69 6e 67 20 	movabs $0x6e6f6320676e6972,%rax
  402416:	63 6f 6e 
  402419:	48 89 43 10          	mov    %rax,0x10(%rbx)
  40241d:	48 b8 74 61 69 6e 73 	movabs $0x6e6120736e696174,%rax
  402424:	20 61 6e 
  402427:	48 89 43 18          	mov    %rax,0x18(%rbx)
  40242b:	48 b8 20 69 6c 6c 65 	movabs $0x6c6167656c6c6920,%rax
  402432:	67 61 6c 
  402435:	48 89 43 20          	mov    %rax,0x20(%rbx)
  402439:	48 b8 20 6f 72 20 75 	movabs $0x72706e7520726f20,%rax
  402440:	6e 70 72 
  402443:	48 89 43 28          	mov    %rax,0x28(%rbx)
  402447:	48 b8 69 6e 74 61 62 	movabs $0x20656c6261746e69,%rax
  40244e:	6c 65 20 
  402451:	48 89 43 30          	mov    %rax,0x30(%rbx)
  402455:	48 b8 63 68 61 72 61 	movabs $0x6574636172616863,%rax
  40245c:	63 74 65 
  40245f:	48 89 43 38          	mov    %rax,0x38(%rbx)
  402463:	66 c7 43 40 72 2e    	movw   $0x2e72,0x40(%rbx)
  402469:	c6 43 42 00          	movb   $0x0,0x42(%rbx)
  40246d:	89 ef                	mov    %ebp,%edi
  40246f:	e8 3c e8 ff ff       	callq  400cb0 <close@plt>
  402474:	b8 ff ff ff ff       	mov    $0xffffffff,%eax
  402479:	e9 c2 03 00 00       	jmpq   402840 <submitr+0x709>
  40247e:	4d 89 e1             	mov    %r12,%r9
  402481:	4c 8d 84 24 20 40 00 	lea    0x4020(%rsp),%r8
  402488:	00 
  402489:	4c 89 f9             	mov    %r15,%rcx
  40248c:	4c 89 f2             	mov    %r14,%rdx
  40248f:	be d8 33 40 00       	mov    $0x4033d8,%esi
  402494:	48 8d bc 24 20 60 00 	lea    0x6020(%rsp),%rdi
  40249b:	00 
  40249c:	b8 00 00 00 00       	mov    $0x0,%eax
  4024a1:	e8 3a e9 ff ff       	callq  400de0 <sprintf@plt>
  4024a6:	48 8d bc 24 20 60 00 	lea    0x6020(%rsp),%rdi
  4024ad:	00 
  4024ae:	b8 00 00 00 00       	mov    $0x0,%eax
  4024b3:	48 c7 c1 ff ff ff ff 	mov    $0xffffffffffffffff,%rcx
  4024ba:	f2 ae                	repnz scas %es:(%rdi),%al
  4024bc:	48 f7 d1             	not    %rcx
  4024bf:	48 8d 51 ff          	lea    -0x1(%rcx),%rdx
  4024c3:	48 8d b4 24 20 60 00 	lea    0x6020(%rsp),%rsi
  4024ca:	00 
  4024cb:	89 ef                	mov    %ebp,%edi
  4024cd:	e8 ff fa ff ff       	callq  401fd1 <rio_writen>
  4024d2:	48 85 c0             	test   %rax,%rax
  4024d5:	79 6e                	jns    402545 <submitr+0x40e>
  4024d7:	48 b8 45 72 72 6f 72 	movabs $0x43203a726f727245,%rax
  4024de:	3a 20 43 
  4024e1:	48 89 03             	mov    %rax,(%rbx)
  4024e4:	48 b8 6c 69 65 6e 74 	movabs $0x6e7520746e65696c,%rax
  4024eb:	20 75 6e 
  4024ee:	48 89 43 08          	mov    %rax,0x8(%rbx)
  4024f2:	48 b8 61 62 6c 65 20 	movabs $0x206f7420656c6261,%rax
  4024f9:	74 6f 20 
  4024fc:	48 89 43 10          	mov    %rax,0x10(%rbx)
  402500:	48 b8 77 72 69 74 65 	movabs $0x6f74206574697277,%rax
  402507:	20 74 6f 
  40250a:	48 89 43 18          	mov    %rax,0x18(%rbx)
  40250e:	48 b8 20 74 68 65 20 	movabs $0x7365722065687420,%rax
  402515:	72 65 73 
  402518:	48 89 43 20          	mov    %rax,0x20(%rbx)
  40251c:	48 b8 75 6c 74 20 73 	movabs $0x7672657320746c75,%rax
  402523:	65 72 76 
  402526:	48 89 43 28          	mov    %rax,0x28(%rbx)
  40252a:	66 c7 43 30 65 72    	movw   $0x7265,0x30(%rbx)
  402530:	c6 43 32 00          	movb   $0x0,0x32(%rbx)
  402534:	89 ef                	mov    %ebp,%edi
  402536:	e8 75 e7 ff ff       	callq  400cb0 <close@plt>
  40253b:	b8 ff ff ff ff       	mov    $0xffffffff,%eax
  402540:	e9 fb 02 00 00       	jmpq   402840 <submitr+0x709>
  402545:	89 ee                	mov    %ebp,%esi
  402547:	48 8d bc 24 20 80 00 	lea    0x8020(%rsp),%rdi
  40254e:	00 
  40254f:	e8 6c f9 ff ff       	callq  401ec0 <rio_readinitb>
  402554:	ba 00 20 00 00       	mov    $0x2000,%edx
  402559:	48 8d b4 24 20 60 00 	lea    0x6020(%rsp),%rsi
  402560:	00 
  402561:	48 8d bc 24 20 80 00 	lea    0x8020(%rsp),%rdi
  402568:	00 
  402569:	e8 46 fb ff ff       	callq  4020b4 <rio_readlineb>
  40256e:	48 85 c0             	test   %rax,%rax
  402571:	7f 7d                	jg     4025f0 <submitr+0x4b9>
  402573:	48 b8 45 72 72 6f 72 	movabs $0x43203a726f727245,%rax
  40257a:	3a 20 43 
  40257d:	48 89 03             	mov    %rax,(%rbx)
  402580:	48 b8 6c 69 65 6e 74 	movabs $0x6e7520746e65696c,%rax
  402587:	20 75 6e 
  40258a:	48 89 43 08          	mov    %rax,0x8(%rbx)
  40258e:	48 b8 61 62 6c 65 20 	movabs $0x206f7420656c6261,%rax
  402595:	74 6f 20 
  402598:	48 89 43 10          	mov    %rax,0x10(%rbx)
  40259c:	48 b8 72 65 61 64 20 	movabs $0x7269662064616572,%rax
  4025a3:	66 69 72 
  4025a6:	48 89 43 18          	mov    %rax,0x18(%rbx)
  4025aa:	48 b8 73 74 20 68 65 	movabs $0x6564616568207473,%rax
  4025b1:	61 64 65 
  4025b4:	48 89 43 20          	mov    %rax,0x20(%rbx)
  4025b8:	48 b8 72 20 66 72 6f 	movabs $0x72206d6f72662072,%rax
  4025bf:	6d 20 72 
  4025c2:	48 89 43 28          	mov    %rax,0x28(%rbx)
  4025c6:	48 b8 65 73 75 6c 74 	movabs $0x657320746c757365,%rax
  4025cd:	20 73 65 
  4025d0:	48 89 43 30          	mov    %rax,0x30(%rbx)
  4025d4:	c7 43 38 72 76 65 72 	movl   $0x72657672,0x38(%rbx)
  4025db:	c6 43 3c 00          	movb   $0x0,0x3c(%rbx)
  4025df:	89 ef                	mov    %ebp,%edi
  4025e1:	e8 ca e6 ff ff       	callq  400cb0 <close@plt>
  4025e6:	b8 ff ff ff ff       	mov    $0xffffffff,%eax
  4025eb:	e9 50 02 00 00       	jmpq   402840 <submitr+0x709>
  4025f0:	4c 8d 44 24 10       	lea    0x10(%rsp),%r8
  4025f5:	48 8d 8c 24 1c 20 00 	lea    0x201c(%rsp),%rcx
  4025fc:	00 
  4025fd:	48 8d 94 24 20 20 00 	lea    0x2020(%rsp),%rdx
  402604:	00 
  402605:	be 4f 34 40 00       	mov    $0x40344f,%esi
  40260a:	48 8d bc 24 20 60 00 	lea    0x6020(%rsp),%rdi
  402611:	00 
  402612:	b8 00 00 00 00       	mov    $0x0,%eax
  402617:	e8 54 e7 ff ff       	callq  400d70 <__isoc99_sscanf@plt>
  40261c:	e9 98 00 00 00       	jmpq   4026b9 <submitr+0x582>
  402621:	ba 00 20 00 00       	mov    $0x2000,%edx
  402626:	48 8d b4 24 20 60 00 	lea    0x6020(%rsp),%rsi
  40262d:	00 
  40262e:	48 8d bc 24 20 80 00 	lea    0x8020(%rsp),%rdi
  402635:	00 
  402636:	e8 79 fa ff ff       	callq  4020b4 <rio_readlineb>
  40263b:	48 85 c0             	test   %rax,%rax
  40263e:	7f 79                	jg     4026b9 <submitr+0x582>
  402640:	48 b8 45 72 72 6f 72 	movabs $0x43203a726f727245,%rax
  402647:	3a 20 43 
  40264a:	48 89 03             	mov    %rax,(%rbx)
  40264d:	48 b8 6c 69 65 6e 74 	movabs $0x6e7520746e65696c,%rax
  402654:	20 75 6e 
  402657:	48 89 43 08          	mov    %rax,0x8(%rbx)
  40265b:	48 b8 61 62 6c 65 20 	movabs $0x206f7420656c6261,%rax
  402662:	74 6f 20 
  402665:	48 89 43 10          	mov    %rax,0x10(%rbx)
  402669:	48 b8 72 65 61 64 20 	movabs $0x6165682064616572,%rax
  402670:	68 65 61 
  402673:	48 89 43 18          	mov    %rax,0x18(%rbx)
  402677:	48 b8 64 65 72 73 20 	movabs $0x6f72662073726564,%rax
  40267e:	66 72 6f 
  402681:	48 89 43 20          	mov    %rax,0x20(%rbx)
  402685:	48 b8 6d 20 74 68 65 	movabs $0x657220656874206d,%rax
  40268c:	20 72 65 
  40268f:	48 89 43 28          	mov    %rax,0x28(%rbx)
  402693:	48 b8 73 75 6c 74 20 	movabs $0x72657320746c7573,%rax
  40269a:	73 65 72 
  40269d:	48 89 43 30          	mov    %rax,0x30(%rbx)
  4026a1:	c7 43 38 76 65 72 00 	movl   $0x726576,0x38(%rbx)
  4026a8:	89 ef                	mov    %ebp,%edi
  4026aa:	e8 01 e6 ff ff       	callq  400cb0 <close@plt>
  4026af:	b8 ff ff ff ff       	mov    $0xffffffff,%eax
  4026b4:	e9 87 01 00 00       	jmpq   402840 <submitr+0x709>
  4026b9:	0f b6 84 24 20 60 00 	movzbl 0x6020(%rsp),%eax
  4026c0:	00 
  4026c1:	83 e8 0d             	sub    $0xd,%eax
  4026c4:	75 15                	jne    4026db <submitr+0x5a4>
  4026c6:	0f b6 84 24 21 60 00 	movzbl 0x6021(%rsp),%eax
  4026cd:	00 
  4026ce:	83 e8 0a             	sub    $0xa,%eax
  4026d1:	75 08                	jne    4026db <submitr+0x5a4>
  4026d3:	0f b6 84 24 22 60 00 	movzbl 0x6022(%rsp),%eax
  4026da:	00 
  4026db:	85 c0                	test   %eax,%eax
  4026dd:	0f 85 3e ff ff ff    	jne    402621 <submitr+0x4ea>
  4026e3:	ba 00 20 00 00       	mov    $0x2000,%edx
  4026e8:	48 8d b4 24 20 60 00 	lea    0x6020(%rsp),%rsi
  4026ef:	00 
  4026f0:	48 8d bc 24 20 80 00 	lea    0x8020(%rsp),%rdi
  4026f7:	00 
  4026f8:	e8 b7 f9 ff ff       	callq  4020b4 <rio_readlineb>
  4026fd:	48 85 c0             	test   %rax,%rax
  402700:	0f 8f 83 00 00 00    	jg     402789 <submitr+0x652>
  402706:	48 b8 45 72 72 6f 72 	movabs $0x43203a726f727245,%rax
  40270d:	3a 20 43 
  402710:	48 89 03             	mov    %rax,(%rbx)
  402713:	48 b8 6c 69 65 6e 74 	movabs $0x6e7520746e65696c,%rax
  40271a:	20 75 6e 
  40271d:	48 89 43 08          	mov    %rax,0x8(%rbx)
  402721:	48 b8 61 62 6c 65 20 	movabs $0x206f7420656c6261,%rax
  402728:	74 6f 20 
  40272b:	48 89 43 10          	mov    %rax,0x10(%rbx)
  40272f:	48 b8 72 65 61 64 20 	movabs $0x6174732064616572,%rax
  402736:	73 74 61 
  402739:	48 89 43 18          	mov    %rax,0x18(%rbx)
  40273d:	48 b8 74 75 73 20 6d 	movabs $0x7373656d20737574,%rax
  402744:	65 73 73 
  402747:	48 89 43 20          	mov    %rax,0x20(%rbx)
  40274b:	48 b8 61 67 65 20 66 	movabs $0x6d6f726620656761,%rax
  402752:	72 6f 6d 
  402755:	48 89 43 28          	mov    %rax,0x28(%rbx)
  402759:	48 b8 20 72 65 73 75 	movabs $0x20746c7573657220,%rax
  402760:	6c 74 20 
  402763:	48 89 43 30          	mov    %rax,0x30(%rbx)
  402767:	c7 43 38 73 65 72 76 	movl   $0x76726573,0x38(%rbx)
  40276e:	66 c7 43 3c 65 72    	movw   $0x7265,0x3c(%rbx)
  402774:	c6 43 3e 00          	movb   $0x0,0x3e(%rbx)
  402778:	89 ef                	mov    %ebp,%edi
  40277a:	e8 31 e5 ff ff       	callq  400cb0 <close@plt>
  40277f:	b8 ff ff ff ff       	mov    $0xffffffff,%eax
  402784:	e9 b7 00 00 00       	jmpq   402840 <submitr+0x709>
  402789:	8b 94 24 1c 20 00 00 	mov    0x201c(%rsp),%edx
  402790:	81 fa c8 00 00 00    	cmp    $0xc8,%edx
  402796:	74 28                	je     4027c0 <submitr+0x689>
  402798:	48 8d 4c 24 10       	lea    0x10(%rsp),%rcx
  40279d:	be 18 34 40 00       	mov    $0x403418,%esi
  4027a2:	48 89 df             	mov    %rbx,%rdi
  4027a5:	b8 00 00 00 00       	mov    $0x0,%eax
  4027aa:	e8 31 e6 ff ff       	callq  400de0 <sprintf@plt>
  4027af:	89 ef                	mov    %ebp,%edi
  4027b1:	e8 fa e4 ff ff       	callq  400cb0 <close@plt>
  4027b6:	b8 ff ff ff ff       	mov    $0xffffffff,%eax
  4027bb:	e9 80 00 00 00       	jmpq   402840 <submitr+0x709>
  4027c0:	48 8d b4 24 20 60 00 	lea    0x6020(%rsp),%rsi
  4027c7:	00 
  4027c8:	48 89 df             	mov    %rbx,%rdi
  4027cb:	e8 70 e4 ff ff       	callq  400c40 <strcpy@plt>
  4027d0:	89 ef                	mov    %ebp,%edi
  4027d2:	e8 d9 e4 ff ff       	callq  400cb0 <close@plt>
  4027d7:	0f b6 03             	movzbl (%rbx),%eax
  4027da:	83 e8 4f             	sub    $0x4f,%eax
  4027dd:	75 18                	jne    4027f7 <submitr+0x6c0>
  4027df:	0f b6 53 01          	movzbl 0x1(%rbx),%edx
  4027e3:	83 ea 4b             	sub    $0x4b,%edx
  4027e6:	75 11                	jne    4027f9 <submitr+0x6c2>
  4027e8:	0f b6 53 02          	movzbl 0x2(%rbx),%edx
  4027ec:	83 ea 0a             	sub    $0xa,%edx
  4027ef:	75 08                	jne    4027f9 <submitr+0x6c2>
  4027f1:	0f b6 53 03          	movzbl 0x3(%rbx),%edx
  4027f5:	eb 02                	jmp    4027f9 <submitr+0x6c2>
  4027f7:	89 c2                	mov    %eax,%edx
  4027f9:	85 d2                	test   %edx,%edx
  4027fb:	74 30                	je     40282d <submitr+0x6f6>
  4027fd:	bf 60 34 40 00       	mov    $0x403460,%edi
  402802:	b9 05 00 00 00       	mov    $0x5,%ecx
  402807:	48 89 de             	mov    %rbx,%rsi
  40280a:	f3 a6                	repz cmpsb %es:(%rdi),%ds:(%rsi)
  40280c:	0f 97 c1             	seta   %cl
  40280f:	0f 92 c2             	setb   %dl
  402812:	38 d1                	cmp    %dl,%cl
  402814:	74 1e                	je     402834 <submitr+0x6fd>
  402816:	85 c0                	test   %eax,%eax
  402818:	75 0d                	jne    402827 <submitr+0x6f0>
  40281a:	0f b6 43 01          	movzbl 0x1(%rbx),%eax
  40281e:	83 e8 4b             	sub    $0x4b,%eax
  402821:	75 04                	jne    402827 <submitr+0x6f0>
  402823:	0f b6 43 02          	movzbl 0x2(%rbx),%eax
  402827:	85 c0                	test   %eax,%eax
  402829:	75 10                	jne    40283b <submitr+0x704>
  40282b:	eb 13                	jmp    402840 <submitr+0x709>
  40282d:	b8 00 00 00 00       	mov    $0x0,%eax
  402832:	eb 0c                	jmp    402840 <submitr+0x709>
  402834:	b8 00 00 00 00       	mov    $0x0,%eax
  402839:	eb 05                	jmp    402840 <submitr+0x709>
  40283b:	b8 ff ff ff ff       	mov    $0xffffffff,%eax
  402840:	48 81 c4 48 a0 00 00 	add    $0xa048,%rsp
  402847:	5b                   	pop    %rbx
  402848:	5d                   	pop    %rbp
  402849:	41 5c                	pop    %r12
  40284b:	41 5d                	pop    %r13
  40284d:	41 5e                	pop    %r14
  40284f:	41 5f                	pop    %r15
  402851:	c3                   	retq   

0000000000402852 <init_timeout>:
  402852:	53                   	push   %rbx
  402853:	89 fb                	mov    %edi,%ebx
  402855:	85 ff                	test   %edi,%edi
  402857:	74 1f                	je     402878 <init_timeout+0x26>
  402859:	85 ff                	test   %edi,%edi
  40285b:	79 05                	jns    402862 <init_timeout+0x10>
  40285d:	bb 00 00 00 00       	mov    $0x0,%ebx
  402862:	be d2 1e 40 00       	mov    $0x401ed2,%esi
  402867:	bf 0e 00 00 00       	mov    $0xe,%edi
  40286c:	e8 6f e4 ff ff       	callq  400ce0 <signal@plt>
  402871:	89 df                	mov    %ebx,%edi
  402873:	e8 28 e4 ff ff       	callq  400ca0 <alarm@plt>
  402878:	5b                   	pop    %rbx
  402879:	c3                   	retq   

000000000040287a <init_driver>:
  40287a:	55                   	push   %rbp
  40287b:	53                   	push   %rbx
  40287c:	48 83 ec 18          	sub    $0x18,%rsp
  402880:	48 89 fd             	mov    %rdi,%rbp
  402883:	be 01 00 00 00       	mov    $0x1,%esi
  402888:	bf 0d 00 00 00       	mov    $0xd,%edi
  40288d:	e8 4e e4 ff ff       	callq  400ce0 <signal@plt>
  402892:	be 01 00 00 00       	mov    $0x1,%esi
  402897:	bf 1d 00 00 00       	mov    $0x1d,%edi
  40289c:	e8 3f e4 ff ff       	callq  400ce0 <signal@plt>
  4028a1:	be 01 00 00 00       	mov    $0x1,%esi
  4028a6:	bf 1d 00 00 00       	mov    $0x1d,%edi
  4028ab:	e8 30 e4 ff ff       	callq  400ce0 <signal@plt>
  4028b0:	ba 00 00 00 00       	mov    $0x0,%edx
  4028b5:	be 01 00 00 00       	mov    $0x1,%esi
  4028ba:	bf 02 00 00 00       	mov    $0x2,%edi
  4028bf:	e8 4c e5 ff ff       	callq  400e10 <socket@plt>
  4028c4:	89 c3                	mov    %eax,%ebx
  4028c6:	85 c0                	test   %eax,%eax
  4028c8:	79 4f                	jns    402919 <init_driver+0x9f>
  4028ca:	48 b8 45 72 72 6f 72 	movabs $0x43203a726f727245,%rax
  4028d1:	3a 20 43 
  4028d4:	48 89 45 00          	mov    %rax,0x0(%rbp)
  4028d8:	48 b8 6c 69 65 6e 74 	movabs $0x6e7520746e65696c,%rax
  4028df:	20 75 6e 
  4028e2:	48 89 45 08          	mov    %rax,0x8(%rbp)
  4028e6:	48 b8 61 62 6c 65 20 	movabs $0x206f7420656c6261,%rax
  4028ed:	74 6f 20 
  4028f0:	48 89 45 10          	mov    %rax,0x10(%rbp)
  4028f4:	48 b8 63 72 65 61 74 	movabs $0x7320657461657263,%rax
  4028fb:	65 20 73 
  4028fe:	48 89 45 18          	mov    %rax,0x18(%rbp)
  402902:	c7 45 20 6f 63 6b 65 	movl   $0x656b636f,0x20(%rbp)
  402909:	66 c7 45 24 74 00    	movw   $0x74,0x24(%rbp)
  40290f:	b8 ff ff ff ff       	mov    $0xffffffff,%eax
  402914:	e9 23 01 00 00       	jmpq   402a3c <init_driver+0x1c2>
  402919:	bf 40 2f 40 00       	mov    $0x402f40,%edi
  40291e:	e8 cd e3 ff ff       	callq  400cf0 <gethostbyname@plt>
  402923:	48 85 c0             	test   %rax,%rax
  402926:	75 68                	jne    402990 <init_driver+0x116>
  402928:	48 b8 45 72 72 6f 72 	movabs $0x44203a726f727245,%rax
  40292f:	3a 20 44 
  402932:	48 89 45 00          	mov    %rax,0x0(%rbp)
  402936:	48 b8 4e 53 20 69 73 	movabs $0x6e7520736920534e,%rax
  40293d:	20 75 6e 
  402940:	48 89 45 08          	mov    %rax,0x8(%rbp)
  402944:	48 b8 61 62 6c 65 20 	movabs $0x206f7420656c6261,%rax
  40294b:	74 6f 20 
  40294e:	48 89 45 10          	mov    %rax,0x10(%rbp)
  402952:	48 b8 72 65 73 6f 6c 	movabs $0x2065766c6f736572,%rax
  402959:	76 65 20 
  40295c:	48 89 45 18          	mov    %rax,0x18(%rbp)
  402960:	48 b8 73 65 72 76 65 	movabs $0x6120726576726573,%rax
  402967:	72 20 61 
  40296a:	48 89 45 20          	mov    %rax,0x20(%rbp)
  40296e:	c7 45 28 64 64 72 65 	movl   $0x65726464,0x28(%rbp)
  402975:	66 c7 45 2c 73 73    	movw   $0x7373,0x2c(%rbp)
  40297b:	c6 45 2e 00          	movb   $0x0,0x2e(%rbp)
  40297f:	89 df                	mov    %ebx,%edi
  402981:	e8 2a e3 ff ff       	callq  400cb0 <close@plt>
  402986:	b8 ff ff ff ff       	mov    $0xffffffff,%eax
  40298b:	e9 ac 00 00 00       	jmpq   402a3c <init_driver+0x1c2>
  402990:	48 c7 04 24 00 00 00 	movq   $0x0,(%rsp)
  402997:	00 
  402998:	48 c7 44 24 08 00 00 	movq   $0x0,0x8(%rsp)
  40299f:	00 00 
  4029a1:	66 c7 04 24 02 00    	movw   $0x2,(%rsp)
  4029a7:	48 8b 48 18          	mov    0x18(%rax),%rcx
  4029ab:	48 63 50 14          	movslq 0x14(%rax),%rdx
  4029af:	48 8d 74 24 04       	lea    0x4(%rsp),%rsi
  4029b4:	48 8b 39             	mov    (%rcx),%rdi
  4029b7:	e8 d4 e3 ff ff       	callq  400d90 <bcopy@plt>
  4029bc:	66 c7 44 24 02 47 26 	movw   $0x2647,0x2(%rsp)
  4029c3:	ba 10 00 00 00       	mov    $0x10,%edx
  4029c8:	48 89 e6             	mov    %rsp,%rsi
  4029cb:	89 df                	mov    %ebx,%edi
  4029cd:	e8 2e e4 ff ff       	callq  400e00 <connect@plt>
  4029d2:	85 c0                	test   %eax,%eax
  4029d4:	79 50                	jns    402a26 <init_driver+0x1ac>
  4029d6:	48 b8 45 72 72 6f 72 	movabs $0x55203a726f727245,%rax
  4029dd:	3a 20 55 
  4029e0:	48 89 45 00          	mov    %rax,0x0(%rbp)
  4029e4:	48 b8 6e 61 62 6c 65 	movabs $0x6f7420656c62616e,%rax
  4029eb:	20 74 6f 
  4029ee:	48 89 45 08          	mov    %rax,0x8(%rbp)
  4029f2:	48 b8 20 63 6f 6e 6e 	movabs $0x7463656e6e6f6320,%rax
  4029f9:	65 63 74 
  4029fc:	48 89 45 10          	mov    %rax,0x10(%rbp)
  402a00:	48 b8 20 74 6f 20 73 	movabs $0x76726573206f7420,%rax
  402a07:	65 72 76 
  402a0a:	48 89 45 18          	mov    %rax,0x18(%rbp)
  402a0e:	66 c7 45 20 65 72    	movw   $0x7265,0x20(%rbp)
  402a14:	c6 45 22 00          	movb   $0x0,0x22(%rbp)
  402a18:	89 df                	mov    %ebx,%edi
  402a1a:	e8 91 e2 ff ff       	callq  400cb0 <close@plt>
  402a1f:	b8 ff ff ff ff       	mov    $0xffffffff,%eax
  402a24:	eb 16                	jmp    402a3c <init_driver+0x1c2>
  402a26:	89 df                	mov    %ebx,%edi
  402a28:	e8 83 e2 ff ff       	callq  400cb0 <close@plt>
  402a2d:	66 c7 45 00 4f 4b    	movw   $0x4b4f,0x0(%rbp)
  402a33:	c6 45 02 00          	movb   $0x0,0x2(%rbp)
  402a37:	b8 00 00 00 00       	mov    $0x0,%eax
  402a3c:	48 83 c4 18          	add    $0x18,%rsp
  402a40:	5b                   	pop    %rbx
  402a41:	5d                   	pop    %rbp
  402a42:	c3                   	retq   

0000000000402a43 <driver_post>:
  402a43:	53                   	push   %rbx
  402a44:	48 83 ec 10          	sub    $0x10,%rsp
  402a48:	4c 89 cb             	mov    %r9,%rbx
  402a4b:	45 85 c0             	test   %r8d,%r8d
  402a4e:	74 22                	je     402a72 <driver_post+0x2f>
  402a50:	48 89 ce             	mov    %rcx,%rsi
  402a53:	bf 65 34 40 00       	mov    $0x403465,%edi
  402a58:	b8 00 00 00 00       	mov    $0x0,%eax
  402a5d:	e8 1e e2 ff ff       	callq  400c80 <printf@plt>
  402a62:	66 c7 03 4f 4b       	movw   $0x4b4f,(%rbx)
  402a67:	c6 43 02 00          	movb   $0x0,0x2(%rbx)
  402a6b:	b8 00 00 00 00       	mov    $0x0,%eax
  402a70:	eb 39                	jmp    402aab <driver_post+0x68>
  402a72:	48 85 ff             	test   %rdi,%rdi
  402a75:	74 26                	je     402a9d <driver_post+0x5a>
  402a77:	80 3f 00             	cmpb   $0x0,(%rdi)
  402a7a:	74 21                	je     402a9d <driver_post+0x5a>
  402a7c:	4c 89 0c 24          	mov    %r9,(%rsp)
  402a80:	49 89 c9             	mov    %rcx,%r9
  402a83:	49 89 d0             	mov    %rdx,%r8
  402a86:	48 89 f9             	mov    %rdi,%rcx
  402a89:	48 89 f2             	mov    %rsi,%rdx
  402a8c:	be 26 47 00 00       	mov    $0x4726,%esi
  402a91:	bf 40 2f 40 00       	mov    $0x402f40,%edi
  402a96:	e8 9c f6 ff ff       	callq  402137 <submitr>
  402a9b:	eb 0e                	jmp    402aab <driver_post+0x68>
  402a9d:	66 c7 03 4f 4b       	movw   $0x4b4f,(%rbx)
  402aa2:	c6 43 02 00          	movb   $0x0,0x2(%rbx)
  402aa6:	b8 00 00 00 00       	mov    $0x0,%eax
  402aab:	48 83 c4 10          	add    $0x10,%rsp
  402aaf:	5b                   	pop    %rbx
  402ab0:	c3                   	retq   

0000000000402ab1 <check>:
  402ab1:	89 f8                	mov    %edi,%eax
  402ab3:	c1 e8 1c             	shr    $0x1c,%eax
  402ab6:	85 c0                	test   %eax,%eax
  402ab8:	74 1d                	je     402ad7 <check+0x26>
  402aba:	b9 00 00 00 00       	mov    $0x0,%ecx
  402abf:	eb 0b                	jmp    402acc <check+0x1b>
  402ac1:	89 f8                	mov    %edi,%eax
  402ac3:	d3 e8                	shr    %cl,%eax
  402ac5:	3c 0a                	cmp    $0xa,%al
  402ac7:	74 14                	je     402add <check+0x2c>
  402ac9:	83 c1 08             	add    $0x8,%ecx
  402acc:	83 f9 1f             	cmp    $0x1f,%ecx
  402acf:	7e f0                	jle    402ac1 <check+0x10>
  402ad1:	b8 01 00 00 00       	mov    $0x1,%eax
  402ad6:	c3                   	retq   
  402ad7:	b8 00 00 00 00       	mov    $0x0,%eax
  402adc:	c3                   	retq   
  402add:	b8 00 00 00 00       	mov    $0x0,%eax
  402ae2:	c3                   	retq   

0000000000402ae3 <gencookie>:
  402ae3:	53                   	push   %rbx
  402ae4:	83 c7 01             	add    $0x1,%edi
  402ae7:	e8 34 e1 ff ff       	callq  400c20 <srandom@plt>
  402aec:	e8 5f e2 ff ff       	callq  400d50 <random@plt>
  402af1:	89 c3                	mov    %eax,%ebx
  402af3:	89 c7                	mov    %eax,%edi
  402af5:	e8 b7 ff ff ff       	callq  402ab1 <check>
  402afa:	85 c0                	test   %eax,%eax
  402afc:	74 ee                	je     402aec <gencookie+0x9>
  402afe:	89 d8                	mov    %ebx,%eax
  402b00:	5b                   	pop    %rbx
  402b01:	c3                   	retq   
  402b02:	66 2e 0f 1f 84 00 00 	nopw   %cs:0x0(%rax,%rax,1)
  402b09:	00 00 00 
  402b0c:	0f 1f 40 00          	nopl   0x0(%rax)

0000000000402b10 <__libc_csu_init>:
  402b10:	41 57                	push   %r15
  402b12:	41 89 ff             	mov    %edi,%r15d
  402b15:	41 56                	push   %r14
  402b17:	49 89 f6             	mov    %rsi,%r14
  402b1a:	41 55                	push   %r13
  402b1c:	49 89 d5             	mov    %rdx,%r13
  402b1f:	41 54                	push   %r12
  402b21:	4c 8d 25 e8 12 20 00 	lea    0x2012e8(%rip),%r12        # 603e10 <__frame_dummy_init_array_entry>
  402b28:	55                   	push   %rbp
  402b29:	48 8d 2d e8 12 20 00 	lea    0x2012e8(%rip),%rbp        # 603e18 <__init_array_end>
  402b30:	53                   	push   %rbx
  402b31:	4c 29 e5             	sub    %r12,%rbp
  402b34:	31 db                	xor    %ebx,%ebx
  402b36:	48 c1 fd 03          	sar    $0x3,%rbp
  402b3a:	48 83 ec 08          	sub    $0x8,%rsp
  402b3e:	e8 85 e0 ff ff       	callq  400bc8 <_init>
  402b43:	48 85 ed             	test   %rbp,%rbp
  402b46:	74 1e                	je     402b66 <__libc_csu_init+0x56>
  402b48:	0f 1f 84 00 00 00 00 	nopl   0x0(%rax,%rax,1)
  402b4f:	00 
  402b50:	4c 89 ea             	mov    %r13,%rdx
  402b53:	4c 89 f6             	mov    %r14,%rsi
  402b56:	44 89 ff             	mov    %r15d,%edi
  402b59:	41 ff 14 dc          	callq  *(%r12,%rbx,8)
  402b5d:	48 83 c3 01          	add    $0x1,%rbx
  402b61:	48 39 eb             	cmp    %rbp,%rbx
  402b64:	75 ea                	jne    402b50 <__libc_csu_init+0x40>
  402b66:	48 83 c4 08          	add    $0x8,%rsp
  402b6a:	5b                   	pop    %rbx
  402b6b:	5d                   	pop    %rbp
  402b6c:	41 5c                	pop    %r12
  402b6e:	41 5d                	pop    %r13
  402b70:	41 5e                	pop    %r14
  402b72:	41 5f                	pop    %r15
  402b74:	c3                   	retq   
  402b75:	90                   	nop
  402b76:	66 2e 0f 1f 84 00 00 	nopw   %cs:0x0(%rax,%rax,1)
  402b7d:	00 00 00 

0000000000402b80 <__libc_csu_fini>:
  402b80:	f3 c3                	repz retq 

Disassembly of section .fini:

0000000000402b84 <_fini>:
  402b84:	48 83 ec 08          	sub    $0x8,%rsp
  402b88:	48 83 c4 08          	add    $0x8,%rsp
  402b8c:	c3                   	retq   
