
rtarget:     file format elf64-x86-64


Disassembly of section .init:

0000000000400bc8 <_init>:
  400bc8:	48 83 ec 08          	sub    $0x8,%rsp
  400bcc:	48 8b 05 25 44 20 00 	mov    0x204425(%rip),%rax        # 604ff8 <__gmon_start__>
  400bd3:	48 85 c0             	test   %rax,%rax
  400bd6:	74 05                	je     400bdd <_init+0x15>
  400bd8:	e8 33 01 00 00       	callq  400d10 <__gmon_start__@plt>
  400bdd:	48 83 c4 08          	add    $0x8,%rsp
  400be1:	c3                   	retq   

Disassembly of section .plt:

0000000000400bf0 <.plt>:
  400bf0:	ff 35 12 44 20 00    	pushq  0x204412(%rip)        # 605008 <_GLOBAL_OFFSET_TABLE_+0x8>
  400bf6:	ff 25 14 44 20 00    	jmpq   *0x204414(%rip)        # 605010 <_GLOBAL_OFFSET_TABLE_+0x10>
  400bfc:	0f 1f 40 00          	nopl   0x0(%rax)

0000000000400c00 <strcasecmp@plt>:
  400c00:	ff 25 12 44 20 00    	jmpq   *0x204412(%rip)        # 605018 <strcasecmp@GLIBC_2.2.5>
  400c06:	68 00 00 00 00       	pushq  $0x0
  400c0b:	e9 e0 ff ff ff       	jmpq   400bf0 <.plt>

0000000000400c10 <__errno_location@plt>:
  400c10:	ff 25 0a 44 20 00    	jmpq   *0x20440a(%rip)        # 605020 <__errno_location@GLIBC_2.2.5>
  400c16:	68 01 00 00 00       	pushq  $0x1
  400c1b:	e9 d0 ff ff ff       	jmpq   400bf0 <.plt>

0000000000400c20 <srandom@plt>:
  400c20:	ff 25 02 44 20 00    	jmpq   *0x204402(%rip)        # 605028 <srandom@GLIBC_2.2.5>
  400c26:	68 02 00 00 00       	pushq  $0x2
  400c2b:	e9 c0 ff ff ff       	jmpq   400bf0 <.plt>

0000000000400c30 <strncmp@plt>:
  400c30:	ff 25 fa 43 20 00    	jmpq   *0x2043fa(%rip)        # 605030 <strncmp@GLIBC_2.2.5>
  400c36:	68 03 00 00 00       	pushq  $0x3
  400c3b:	e9 b0 ff ff ff       	jmpq   400bf0 <.plt>

0000000000400c40 <strcpy@plt>:
  400c40:	ff 25 f2 43 20 00    	jmpq   *0x2043f2(%rip)        # 605038 <strcpy@GLIBC_2.2.5>
  400c46:	68 04 00 00 00       	pushq  $0x4
  400c4b:	e9 a0 ff ff ff       	jmpq   400bf0 <.plt>

0000000000400c50 <puts@plt>:
  400c50:	ff 25 ea 43 20 00    	jmpq   *0x2043ea(%rip)        # 605040 <puts@GLIBC_2.2.5>
  400c56:	68 05 00 00 00       	pushq  $0x5
  400c5b:	e9 90 ff ff ff       	jmpq   400bf0 <.plt>

0000000000400c60 <write@plt>:
  400c60:	ff 25 e2 43 20 00    	jmpq   *0x2043e2(%rip)        # 605048 <write@GLIBC_2.2.5>
  400c66:	68 06 00 00 00       	pushq  $0x6
  400c6b:	e9 80 ff ff ff       	jmpq   400bf0 <.plt>

0000000000400c70 <mmap@plt>:
  400c70:	ff 25 da 43 20 00    	jmpq   *0x2043da(%rip)        # 605050 <mmap@GLIBC_2.2.5>
  400c76:	68 07 00 00 00       	pushq  $0x7
  400c7b:	e9 70 ff ff ff       	jmpq   400bf0 <.plt>

0000000000400c80 <printf@plt>:
  400c80:	ff 25 d2 43 20 00    	jmpq   *0x2043d2(%rip)        # 605058 <printf@GLIBC_2.2.5>
  400c86:	68 08 00 00 00       	pushq  $0x8
  400c8b:	e9 60 ff ff ff       	jmpq   400bf0 <.plt>

0000000000400c90 <memset@plt>:
  400c90:	ff 25 ca 43 20 00    	jmpq   *0x2043ca(%rip)        # 605060 <memset@GLIBC_2.2.5>
  400c96:	68 09 00 00 00       	pushq  $0x9
  400c9b:	e9 50 ff ff ff       	jmpq   400bf0 <.plt>

0000000000400ca0 <alarm@plt>:
  400ca0:	ff 25 c2 43 20 00    	jmpq   *0x2043c2(%rip)        # 605068 <alarm@GLIBC_2.2.5>
  400ca6:	68 0a 00 00 00       	pushq  $0xa
  400cab:	e9 40 ff ff ff       	jmpq   400bf0 <.plt>

0000000000400cb0 <close@plt>:
  400cb0:	ff 25 ba 43 20 00    	jmpq   *0x2043ba(%rip)        # 605070 <close@GLIBC_2.2.5>
  400cb6:	68 0b 00 00 00       	pushq  $0xb
  400cbb:	e9 30 ff ff ff       	jmpq   400bf0 <.plt>

0000000000400cc0 <read@plt>:
  400cc0:	ff 25 b2 43 20 00    	jmpq   *0x2043b2(%rip)        # 605078 <read@GLIBC_2.2.5>
  400cc6:	68 0c 00 00 00       	pushq  $0xc
  400ccb:	e9 20 ff ff ff       	jmpq   400bf0 <.plt>

0000000000400cd0 <__libc_start_main@plt>:
  400cd0:	ff 25 aa 43 20 00    	jmpq   *0x2043aa(%rip)        # 605080 <__libc_start_main@GLIBC_2.2.5>
  400cd6:	68 0d 00 00 00       	pushq  $0xd
  400cdb:	e9 10 ff ff ff       	jmpq   400bf0 <.plt>

0000000000400ce0 <signal@plt>:
  400ce0:	ff 25 a2 43 20 00    	jmpq   *0x2043a2(%rip)        # 605088 <signal@GLIBC_2.2.5>
  400ce6:	68 0e 00 00 00       	pushq  $0xe
  400ceb:	e9 00 ff ff ff       	jmpq   400bf0 <.plt>

0000000000400cf0 <gethostbyname@plt>:
  400cf0:	ff 25 9a 43 20 00    	jmpq   *0x20439a(%rip)        # 605090 <gethostbyname@GLIBC_2.2.5>
  400cf6:	68 0f 00 00 00       	pushq  $0xf
  400cfb:	e9 f0 fe ff ff       	jmpq   400bf0 <.plt>

0000000000400d00 <fprintf@plt>:
  400d00:	ff 25 92 43 20 00    	jmpq   *0x204392(%rip)        # 605098 <fprintf@GLIBC_2.2.5>
  400d06:	68 10 00 00 00       	pushq  $0x10
  400d0b:	e9 e0 fe ff ff       	jmpq   400bf0 <.plt>

0000000000400d10 <__gmon_start__@plt>:
  400d10:	ff 25 8a 43 20 00    	jmpq   *0x20438a(%rip)        # 6050a0 <__gmon_start__>
  400d16:	68 11 00 00 00       	pushq  $0x11
  400d1b:	e9 d0 fe ff ff       	jmpq   400bf0 <.plt>

0000000000400d20 <strtol@plt>:
  400d20:	ff 25 82 43 20 00    	jmpq   *0x204382(%rip)        # 6050a8 <strtol@GLIBC_2.2.5>
  400d26:	68 12 00 00 00       	pushq  $0x12
  400d2b:	e9 c0 fe ff ff       	jmpq   400bf0 <.plt>

0000000000400d30 <memcpy@plt>:
  400d30:	ff 25 7a 43 20 00    	jmpq   *0x20437a(%rip)        # 6050b0 <memcpy@GLIBC_2.14>
  400d36:	68 13 00 00 00       	pushq  $0x13
  400d3b:	e9 b0 fe ff ff       	jmpq   400bf0 <.plt>

0000000000400d40 <time@plt>:
  400d40:	ff 25 72 43 20 00    	jmpq   *0x204372(%rip)        # 6050b8 <time@GLIBC_2.2.5>
  400d46:	68 14 00 00 00       	pushq  $0x14
  400d4b:	e9 a0 fe ff ff       	jmpq   400bf0 <.plt>

0000000000400d50 <random@plt>:
  400d50:	ff 25 6a 43 20 00    	jmpq   *0x20436a(%rip)        # 6050c0 <random@GLIBC_2.2.5>
  400d56:	68 15 00 00 00       	pushq  $0x15
  400d5b:	e9 90 fe ff ff       	jmpq   400bf0 <.plt>

0000000000400d60 <_IO_getc@plt>:
  400d60:	ff 25 62 43 20 00    	jmpq   *0x204362(%rip)        # 6050c8 <_IO_getc@GLIBC_2.2.5>
  400d66:	68 16 00 00 00       	pushq  $0x16
  400d6b:	e9 80 fe ff ff       	jmpq   400bf0 <.plt>

0000000000400d70 <__isoc99_sscanf@plt>:
  400d70:	ff 25 5a 43 20 00    	jmpq   *0x20435a(%rip)        # 6050d0 <__isoc99_sscanf@GLIBC_2.7>
  400d76:	68 17 00 00 00       	pushq  $0x17
  400d7b:	e9 70 fe ff ff       	jmpq   400bf0 <.plt>

0000000000400d80 <munmap@plt>:
  400d80:	ff 25 52 43 20 00    	jmpq   *0x204352(%rip)        # 6050d8 <munmap@GLIBC_2.2.5>
  400d86:	68 18 00 00 00       	pushq  $0x18
  400d8b:	e9 60 fe ff ff       	jmpq   400bf0 <.plt>

0000000000400d90 <bcopy@plt>:
  400d90:	ff 25 4a 43 20 00    	jmpq   *0x20434a(%rip)        # 6050e0 <bcopy@GLIBC_2.2.5>
  400d96:	68 19 00 00 00       	pushq  $0x19
  400d9b:	e9 50 fe ff ff       	jmpq   400bf0 <.plt>

0000000000400da0 <fopen@plt>:
  400da0:	ff 25 42 43 20 00    	jmpq   *0x204342(%rip)        # 6050e8 <fopen@GLIBC_2.2.5>
  400da6:	68 1a 00 00 00       	pushq  $0x1a
  400dab:	e9 40 fe ff ff       	jmpq   400bf0 <.plt>

0000000000400db0 <getopt@plt>:
  400db0:	ff 25 3a 43 20 00    	jmpq   *0x20433a(%rip)        # 6050f0 <getopt@GLIBC_2.2.5>
  400db6:	68 1b 00 00 00       	pushq  $0x1b
  400dbb:	e9 30 fe ff ff       	jmpq   400bf0 <.plt>

0000000000400dc0 <strtoul@plt>:
  400dc0:	ff 25 32 43 20 00    	jmpq   *0x204332(%rip)        # 6050f8 <strtoul@GLIBC_2.2.5>
  400dc6:	68 1c 00 00 00       	pushq  $0x1c
  400dcb:	e9 20 fe ff ff       	jmpq   400bf0 <.plt>

0000000000400dd0 <gethostname@plt>:
  400dd0:	ff 25 2a 43 20 00    	jmpq   *0x20432a(%rip)        # 605100 <gethostname@GLIBC_2.2.5>
  400dd6:	68 1d 00 00 00       	pushq  $0x1d
  400ddb:	e9 10 fe ff ff       	jmpq   400bf0 <.plt>

0000000000400de0 <sprintf@plt>:
  400de0:	ff 25 22 43 20 00    	jmpq   *0x204322(%rip)        # 605108 <sprintf@GLIBC_2.2.5>
  400de6:	68 1e 00 00 00       	pushq  $0x1e
  400deb:	e9 00 fe ff ff       	jmpq   400bf0 <.plt>

0000000000400df0 <exit@plt>:
  400df0:	ff 25 1a 43 20 00    	jmpq   *0x20431a(%rip)        # 605110 <exit@GLIBC_2.2.5>
  400df6:	68 1f 00 00 00       	pushq  $0x1f
  400dfb:	e9 f0 fd ff ff       	jmpq   400bf0 <.plt>

0000000000400e00 <connect@plt>:
  400e00:	ff 25 12 43 20 00    	jmpq   *0x204312(%rip)        # 605118 <connect@GLIBC_2.2.5>
  400e06:	68 20 00 00 00       	pushq  $0x20
  400e0b:	e9 e0 fd ff ff       	jmpq   400bf0 <.plt>

0000000000400e10 <socket@plt>:
  400e10:	ff 25 0a 43 20 00    	jmpq   *0x20430a(%rip)        # 605120 <socket@GLIBC_2.2.5>
  400e16:	68 21 00 00 00       	pushq  $0x21
  400e1b:	e9 d0 fd ff ff       	jmpq   400bf0 <.plt>

Disassembly of section .text:

0000000000400e20 <_start>:
  400e20:	31 ed                	xor    %ebp,%ebp
  400e22:	49 89 d1             	mov    %rdx,%r9
  400e25:	5e                   	pop    %rsi
  400e26:	48 89 e2             	mov    %rsp,%rdx
  400e29:	48 83 e4 f0          	and    $0xfffffffffffffff0,%rsp
  400e2d:	50                   	push   %rax
  400e2e:	54                   	push   %rsp
  400e2f:	49 c7 c0 a0 2c 40 00 	mov    $0x402ca0,%r8
  400e36:	48 c7 c1 30 2c 40 00 	mov    $0x402c30,%rcx
  400e3d:	48 c7 c7 e0 10 40 00 	mov    $0x4010e0,%rdi
  400e44:	e8 87 fe ff ff       	callq  400cd0 <__libc_start_main@plt>
  400e49:	f4                   	hlt    
  400e4a:	66 0f 1f 44 00 00    	nopw   0x0(%rax,%rax,1)

0000000000400e50 <deregister_tm_clones>:
  400e50:	b8 b7 54 60 00       	mov    $0x6054b7,%eax
  400e55:	55                   	push   %rbp
  400e56:	48 2d b0 54 60 00    	sub    $0x6054b0,%rax
  400e5c:	48 83 f8 0e          	cmp    $0xe,%rax
  400e60:	48 89 e5             	mov    %rsp,%rbp
  400e63:	77 02                	ja     400e67 <deregister_tm_clones+0x17>
  400e65:	5d                   	pop    %rbp
  400e66:	c3                   	retq   
  400e67:	b8 00 00 00 00       	mov    $0x0,%eax
  400e6c:	48 85 c0             	test   %rax,%rax
  400e6f:	74 f4                	je     400e65 <deregister_tm_clones+0x15>
  400e71:	5d                   	pop    %rbp
  400e72:	bf b0 54 60 00       	mov    $0x6054b0,%edi
  400e77:	ff e0                	jmpq   *%rax
  400e79:	0f 1f 80 00 00 00 00 	nopl   0x0(%rax)

0000000000400e80 <register_tm_clones>:
  400e80:	b8 b0 54 60 00       	mov    $0x6054b0,%eax
  400e85:	55                   	push   %rbp
  400e86:	48 2d b0 54 60 00    	sub    $0x6054b0,%rax
  400e8c:	48 c1 f8 03          	sar    $0x3,%rax
  400e90:	48 89 e5             	mov    %rsp,%rbp
  400e93:	48 89 c2             	mov    %rax,%rdx
  400e96:	48 c1 ea 3f          	shr    $0x3f,%rdx
  400e9a:	48 01 d0             	add    %rdx,%rax
  400e9d:	48 d1 f8             	sar    %rax
  400ea0:	75 02                	jne    400ea4 <register_tm_clones+0x24>
  400ea2:	5d                   	pop    %rbp
  400ea3:	c3                   	retq   
  400ea4:	ba 00 00 00 00       	mov    $0x0,%edx
  400ea9:	48 85 d2             	test   %rdx,%rdx
  400eac:	74 f4                	je     400ea2 <register_tm_clones+0x22>
  400eae:	5d                   	pop    %rbp
  400eaf:	48 89 c6             	mov    %rax,%rsi
  400eb2:	bf b0 54 60 00       	mov    $0x6054b0,%edi
  400eb7:	ff e2                	jmpq   *%rdx
  400eb9:	0f 1f 80 00 00 00 00 	nopl   0x0(%rax)

0000000000400ec0 <__do_global_dtors_aux>:
  400ec0:	80 3d 11 46 20 00 00 	cmpb   $0x0,0x204611(%rip)        # 6054d8 <completed.6355>
  400ec7:	75 11                	jne    400eda <__do_global_dtors_aux+0x1a>
  400ec9:	55                   	push   %rbp
  400eca:	48 89 e5             	mov    %rsp,%rbp
  400ecd:	e8 7e ff ff ff       	callq  400e50 <deregister_tm_clones>
  400ed2:	5d                   	pop    %rbp
  400ed3:	c6 05 fe 45 20 00 01 	movb   $0x1,0x2045fe(%rip)        # 6054d8 <completed.6355>
  400eda:	f3 c3                	repz retq 
  400edc:	0f 1f 40 00          	nopl   0x0(%rax)

0000000000400ee0 <frame_dummy>:
  400ee0:	48 83 3d 38 3f 20 00 	cmpq   $0x0,0x203f38(%rip)        # 604e20 <__JCR_END__>
  400ee7:	00 
  400ee8:	74 1e                	je     400f08 <frame_dummy+0x28>
  400eea:	b8 00 00 00 00       	mov    $0x0,%eax
  400eef:	48 85 c0             	test   %rax,%rax
  400ef2:	74 14                	je     400f08 <frame_dummy+0x28>
  400ef4:	55                   	push   %rbp
  400ef5:	bf 20 4e 60 00       	mov    $0x604e20,%edi
  400efa:	48 89 e5             	mov    %rsp,%rbp
  400efd:	ff d0                	callq  *%rax
  400eff:	5d                   	pop    %rbp
  400f00:	e9 7b ff ff ff       	jmpq   400e80 <register_tm_clones>
  400f05:	0f 1f 00             	nopl   (%rax)
  400f08:	e9 73 ff ff ff       	jmpq   400e80 <register_tm_clones>
  400f0d:	0f 1f 00             	nopl   (%rax)

0000000000400f10 <usage>:
  400f10:	48 83 ec 08          	sub    $0x8,%rsp
  400f14:	48 89 fe             	mov    %rdi,%rsi
  400f17:	83 3d ea 45 20 00 00 	cmpl   $0x0,0x2045ea(%rip)        # 605508 <is_checker>
  400f1e:	74 39                	je     400f59 <usage+0x49>
  400f20:	bf c0 2c 40 00       	mov    $0x402cc0,%edi
  400f25:	b8 00 00 00 00       	mov    $0x0,%eax
  400f2a:	e8 51 fd ff ff       	callq  400c80 <printf@plt>
  400f2f:	bf f8 2c 40 00       	mov    $0x402cf8,%edi
  400f34:	e8 17 fd ff ff       	callq  400c50 <puts@plt>
  400f39:	bf 70 2e 40 00       	mov    $0x402e70,%edi
  400f3e:	e8 0d fd ff ff       	callq  400c50 <puts@plt>
  400f43:	bf 20 2d 40 00       	mov    $0x402d20,%edi
  400f48:	e8 03 fd ff ff       	callq  400c50 <puts@plt>
  400f4d:	bf 8a 2e 40 00       	mov    $0x402e8a,%edi
  400f52:	e8 f9 fc ff ff       	callq  400c50 <puts@plt>
  400f57:	eb 2d                	jmp    400f86 <usage+0x76>
  400f59:	bf a6 2e 40 00       	mov    $0x402ea6,%edi
  400f5e:	b8 00 00 00 00       	mov    $0x0,%eax
  400f63:	e8 18 fd ff ff       	callq  400c80 <printf@plt>
  400f68:	bf 48 2d 40 00       	mov    $0x402d48,%edi
  400f6d:	e8 de fc ff ff       	callq  400c50 <puts@plt>
  400f72:	bf 70 2d 40 00       	mov    $0x402d70,%edi
  400f77:	e8 d4 fc ff ff       	callq  400c50 <puts@plt>
  400f7c:	bf c4 2e 40 00       	mov    $0x402ec4,%edi
  400f81:	e8 ca fc ff ff       	callq  400c50 <puts@plt>
  400f86:	bf 00 00 00 00       	mov    $0x0,%edi
  400f8b:	e8 60 fe ff ff       	callq  400df0 <exit@plt>

0000000000400f90 <initialize_target>:
  400f90:	55                   	push   %rbp
  400f91:	53                   	push   %rbx
  400f92:	48 81 ec 08 21 00 00 	sub    $0x2108,%rsp
  400f99:	89 f5                	mov    %esi,%ebp
  400f9b:	89 3d 57 45 20 00    	mov    %edi,0x204557(%rip)        # 6054f8 <check_level>
  400fa1:	8b 3d c1 41 20 00    	mov    0x2041c1(%rip),%edi        # 605168 <target_id>
  400fa7:	e8 57 1c 00 00       	callq  402c03 <gencookie>
  400fac:	89 05 52 45 20 00    	mov    %eax,0x204552(%rip)        # 605504 <cookie>
  400fb2:	89 c7                	mov    %eax,%edi
  400fb4:	e8 4a 1c 00 00       	callq  402c03 <gencookie>
  400fb9:	89 05 41 45 20 00    	mov    %eax,0x204541(%rip)        # 605500 <authkey>
  400fbf:	8b 05 a3 41 20 00    	mov    0x2041a3(%rip),%eax        # 605168 <target_id>
  400fc5:	8d 78 01             	lea    0x1(%rax),%edi
  400fc8:	e8 53 fc ff ff       	callq  400c20 <srandom@plt>
  400fcd:	e8 7e fd ff ff       	callq  400d50 <random@plt>
  400fd2:	89 c7                	mov    %eax,%edi
  400fd4:	e8 ca 02 00 00       	callq  4012a3 <scramble>
  400fd9:	89 c3                	mov    %eax,%ebx
  400fdb:	85 ed                	test   %ebp,%ebp
  400fdd:	74 18                	je     400ff7 <initialize_target+0x67>
  400fdf:	bf 00 00 00 00       	mov    $0x0,%edi
  400fe4:	e8 57 fd ff ff       	callq  400d40 <time@plt>
  400fe9:	89 c7                	mov    %eax,%edi
  400feb:	e8 30 fc ff ff       	callq  400c20 <srandom@plt>
  400ff0:	e8 5b fd ff ff       	callq  400d50 <random@plt>
  400ff5:	eb 05                	jmp    400ffc <initialize_target+0x6c>
  400ff7:	b8 00 00 00 00       	mov    $0x0,%eax
  400ffc:	01 c3                	add    %eax,%ebx
  400ffe:	0f b7 db             	movzwl %bx,%ebx
  401001:	8d 04 dd 00 01 00 00 	lea    0x100(,%rbx,8),%eax
  401008:	89 c0                	mov    %eax,%eax
  40100a:	48 89 05 8f 44 20 00 	mov    %rax,0x20448f(%rip)        # 6054a0 <buf_offset>
  401011:	c6 05 10 51 20 00 72 	movb   $0x72,0x205110(%rip)        # 606128 <target_prefix>
  401018:	83 3d 89 44 20 00 00 	cmpl   $0x0,0x204489(%rip)        # 6054a8 <notify>
  40101f:	0f 84 b1 00 00 00    	je     4010d6 <initialize_target+0x146>
  401025:	83 3d dc 44 20 00 00 	cmpl   $0x0,0x2044dc(%rip)        # 605508 <is_checker>
  40102c:	0f 85 a4 00 00 00    	jne    4010d6 <initialize_target+0x146>
  401032:	be 00 01 00 00       	mov    $0x100,%esi
  401037:	48 89 e7             	mov    %rsp,%rdi
  40103a:	e8 91 fd ff ff       	callq  400dd0 <gethostname@plt>
  40103f:	85 c0                	test   %eax,%eax
  401041:	74 25                	je     401068 <initialize_target+0xd8>
  401043:	bf a0 2d 40 00       	mov    $0x402da0,%edi
  401048:	e8 03 fc ff ff       	callq  400c50 <puts@plt>
  40104d:	bf 08 00 00 00       	mov    $0x8,%edi
  401052:	e8 99 fd ff ff       	callq  400df0 <exit@plt>
  401057:	48 89 e6             	mov    %rsp,%rsi
  40105a:	e8 a1 fb ff ff       	callq  400c00 <strcasecmp@plt>
  40105f:	85 c0                	test   %eax,%eax
  401061:	74 21                	je     401084 <initialize_target+0xf4>
  401063:	83 c3 01             	add    $0x1,%ebx
  401066:	eb 05                	jmp    40106d <initialize_target+0xdd>
  401068:	bb 00 00 00 00       	mov    $0x0,%ebx
  40106d:	48 63 c3             	movslq %ebx,%rax
  401070:	48 8b 3c c5 80 51 60 	mov    0x605180(,%rax,8),%rdi
  401077:	00 
  401078:	48 85 ff             	test   %rdi,%rdi
  40107b:	75 da                	jne    401057 <initialize_target+0xc7>
  40107d:	b8 00 00 00 00       	mov    $0x0,%eax
  401082:	eb 05                	jmp    401089 <initialize_target+0xf9>
  401084:	b8 01 00 00 00       	mov    $0x1,%eax
  401089:	85 c0                	test   %eax,%eax
  40108b:	75 17                	jne    4010a4 <initialize_target+0x114>
  40108d:	48 89 e6             	mov    %rsp,%rsi
  401090:	bf d8 2d 40 00       	mov    $0x402dd8,%edi
  401095:	e8 e6 fb ff ff       	callq  400c80 <printf@plt>
  40109a:	bf 08 00 00 00       	mov    $0x8,%edi
  40109f:	e8 4c fd ff ff       	callq  400df0 <exit@plt>
  4010a4:	48 8d bc 24 00 01 00 	lea    0x100(%rsp),%rdi
  4010ab:	00 
  4010ac:	e8 e9 18 00 00       	callq  40299a <init_driver>
  4010b1:	85 c0                	test   %eax,%eax
  4010b3:	79 21                	jns    4010d6 <initialize_target+0x146>
  4010b5:	48 8d b4 24 00 01 00 	lea    0x100(%rsp),%rsi
  4010bc:	00 
  4010bd:	bf 18 2e 40 00       	mov    $0x402e18,%edi
  4010c2:	b8 00 00 00 00       	mov    $0x0,%eax
  4010c7:	e8 b4 fb ff ff       	callq  400c80 <printf@plt>
  4010cc:	bf 08 00 00 00       	mov    $0x8,%edi
  4010d1:	e8 1a fd ff ff       	callq  400df0 <exit@plt>
  4010d6:	48 81 c4 08 21 00 00 	add    $0x2108,%rsp
  4010dd:	5b                   	pop    %rbx
  4010de:	5d                   	pop    %rbp
  4010df:	c3                   	retq   

00000000004010e0 <main>:
  4010e0:	41 56                	push   %r14
  4010e2:	41 55                	push   %r13
  4010e4:	41 54                	push   %r12
  4010e6:	55                   	push   %rbp
  4010e7:	53                   	push   %rbx
  4010e8:	41 89 fc             	mov    %edi,%r12d
  4010eb:	48 89 f3             	mov    %rsi,%rbx
  4010ee:	be c1 1d 40 00       	mov    $0x401dc1,%esi
  4010f3:	bf 0b 00 00 00       	mov    $0xb,%edi
  4010f8:	e8 e3 fb ff ff       	callq  400ce0 <signal@plt>
  4010fd:	be 73 1d 40 00       	mov    $0x401d73,%esi
  401102:	bf 07 00 00 00       	mov    $0x7,%edi
  401107:	e8 d4 fb ff ff       	callq  400ce0 <signal@plt>
  40110c:	be 0f 1e 40 00       	mov    $0x401e0f,%esi
  401111:	bf 04 00 00 00       	mov    $0x4,%edi
  401116:	e8 c5 fb ff ff       	callq  400ce0 <signal@plt>
  40111b:	83 3d e6 43 20 00 00 	cmpl   $0x0,0x2043e6(%rip)        # 605508 <is_checker>
  401122:	74 20                	je     401144 <main+0x64>
  401124:	be 5d 1e 40 00       	mov    $0x401e5d,%esi
  401129:	bf 0e 00 00 00       	mov    $0xe,%edi
  40112e:	e8 ad fb ff ff       	callq  400ce0 <signal@plt>
  401133:	bf 05 00 00 00       	mov    $0x5,%edi
  401138:	e8 63 fb ff ff       	callq  400ca0 <alarm@plt>
  40113d:	bd e2 2e 40 00       	mov    $0x402ee2,%ebp
  401142:	eb 05                	jmp    401149 <main+0x69>
  401144:	bd dd 2e 40 00       	mov    $0x402edd,%ebp
  401149:	48 8b 05 70 43 20 00 	mov    0x204370(%rip),%rax        # 6054c0 <stdin@@GLIBC_2.2.5>
  401150:	48 89 05 99 43 20 00 	mov    %rax,0x204399(%rip)        # 6054f0 <infile>
  401157:	41 bd 00 00 00 00    	mov    $0x0,%r13d
  40115d:	41 be 00 00 00 00    	mov    $0x0,%r14d
  401163:	e9 b9 00 00 00       	jmpq   401221 <main+0x141>
  401168:	83 e8 61             	sub    $0x61,%eax
  40116b:	3c 10                	cmp    $0x10,%al
  40116d:	0f 87 93 00 00 00    	ja     401206 <main+0x126>
  401173:	0f b6 c0             	movzbl %al,%eax
  401176:	ff 24 c5 28 2f 40 00 	jmpq   *0x402f28(,%rax,8)
  40117d:	48 8b 3b             	mov    (%rbx),%rdi
  401180:	e8 8b fd ff ff       	callq  400f10 <usage>
  401185:	be 7d 32 40 00       	mov    $0x40327d,%esi
  40118a:	48 8b 3d 37 43 20 00 	mov    0x204337(%rip),%rdi        # 6054c8 <optarg@@GLIBC_2.2.5>
  401191:	e8 0a fc ff ff       	callq  400da0 <fopen@plt>
  401196:	48 89 05 53 43 20 00 	mov    %rax,0x204353(%rip)        # 6054f0 <infile>
  40119d:	48 85 c0             	test   %rax,%rax
  4011a0:	75 7f                	jne    401221 <main+0x141>
  4011a2:	48 8b 15 1f 43 20 00 	mov    0x20431f(%rip),%rdx        # 6054c8 <optarg@@GLIBC_2.2.5>
  4011a9:	be ea 2e 40 00       	mov    $0x402eea,%esi
  4011ae:	48 8b 3d 1b 43 20 00 	mov    0x20431b(%rip),%rdi        # 6054d0 <stderr@@GLIBC_2.2.5>
  4011b5:	e8 46 fb ff ff       	callq  400d00 <fprintf@plt>
  4011ba:	b8 01 00 00 00       	mov    $0x1,%eax
  4011bf:	e9 d6 00 00 00       	jmpq   40129a <main+0x1ba>
  4011c4:	ba 10 00 00 00       	mov    $0x10,%edx
  4011c9:	be 00 00 00 00       	mov    $0x0,%esi
  4011ce:	48 8b 3d f3 42 20 00 	mov    0x2042f3(%rip),%rdi        # 6054c8 <optarg@@GLIBC_2.2.5>
  4011d5:	e8 e6 fb ff ff       	callq  400dc0 <strtoul@plt>
  4011da:	41 89 c6             	mov    %eax,%r14d
  4011dd:	eb 42                	jmp    401221 <main+0x141>
  4011df:	ba 0a 00 00 00       	mov    $0xa,%edx
  4011e4:	be 00 00 00 00       	mov    $0x0,%esi
  4011e9:	48 8b 3d d8 42 20 00 	mov    0x2042d8(%rip),%rdi        # 6054c8 <optarg@@GLIBC_2.2.5>
  4011f0:	e8 2b fb ff ff       	callq  400d20 <strtol@plt>
  4011f5:	41 89 c5             	mov    %eax,%r13d
  4011f8:	eb 27                	jmp    401221 <main+0x141>
  4011fa:	c7 05 a4 42 20 00 00 	movl   $0x0,0x2042a4(%rip)        # 6054a8 <notify>
  401201:	00 00 00 
  401204:	eb 1b                	jmp    401221 <main+0x141>
  401206:	40 0f be f6          	movsbl %sil,%esi
  40120a:	bf 07 2f 40 00       	mov    $0x402f07,%edi
  40120f:	b8 00 00 00 00       	mov    $0x0,%eax
  401214:	e8 67 fa ff ff       	callq  400c80 <printf@plt>
  401219:	48 8b 3b             	mov    (%rbx),%rdi
  40121c:	e8 ef fc ff ff       	callq  400f10 <usage>
  401221:	48 89 ea             	mov    %rbp,%rdx
  401224:	48 89 de             	mov    %rbx,%rsi
  401227:	44 89 e7             	mov    %r12d,%edi
  40122a:	e8 81 fb ff ff       	callq  400db0 <getopt@plt>
  40122f:	89 c6                	mov    %eax,%esi
  401231:	3c ff                	cmp    $0xff,%al
  401233:	0f 85 2f ff ff ff    	jne    401168 <main+0x88>
  401239:	be 01 00 00 00       	mov    $0x1,%esi
  40123e:	44 89 ef             	mov    %r13d,%edi
  401241:	e8 4a fd ff ff       	callq  400f90 <initialize_target>
  401246:	83 3d bb 42 20 00 00 	cmpl   $0x0,0x2042bb(%rip)        # 605508 <is_checker>
  40124d:	74 25                	je     401274 <main+0x194>
  40124f:	44 3b 35 aa 42 20 00 	cmp    0x2042aa(%rip),%r14d        # 605500 <authkey>
  401256:	74 1c                	je     401274 <main+0x194>
  401258:	44 89 f6             	mov    %r14d,%esi
  40125b:	bf 40 2e 40 00       	mov    $0x402e40,%edi
  401260:	b8 00 00 00 00       	mov    $0x0,%eax
  401265:	e8 16 fa ff ff       	callq  400c80 <printf@plt>
  40126a:	b8 00 00 00 00       	mov    $0x0,%eax
  40126f:	e8 07 08 00 00       	callq  401a7b <check_fail>
  401274:	8b 35 8a 42 20 00    	mov    0x20428a(%rip),%esi        # 605504 <cookie>
  40127a:	bf 1a 2f 40 00       	mov    $0x402f1a,%edi
  40127f:	b8 00 00 00 00       	mov    $0x0,%eax
  401284:	e8 f7 f9 ff ff       	callq  400c80 <printf@plt>
  401289:	48 8b 3d 10 42 20 00 	mov    0x204210(%rip),%rdi        # 6054a0 <buf_offset>
  401290:	e8 16 0c 00 00       	callq  401eab <launch>
  401295:	b8 00 00 00 00       	mov    $0x0,%eax
  40129a:	5b                   	pop    %rbx
  40129b:	5d                   	pop    %rbp
  40129c:	41 5c                	pop    %r12
  40129e:	41 5d                	pop    %r13
  4012a0:	41 5e                	pop    %r14
  4012a2:	c3                   	retq   

00000000004012a3 <scramble>:
  4012a3:	b8 00 00 00 00       	mov    $0x0,%eax
  4012a8:	eb 11                	jmp    4012bb <scramble+0x18>
  4012aa:	69 c8 0b 01 00 00    	imul   $0x10b,%eax,%ecx
  4012b0:	01 f9                	add    %edi,%ecx
  4012b2:	89 c2                	mov    %eax,%edx
  4012b4:	89 4c 94 d0          	mov    %ecx,-0x30(%rsp,%rdx,4)
  4012b8:	83 c0 01             	add    $0x1,%eax
  4012bb:	83 f8 09             	cmp    $0x9,%eax
  4012be:	76 ea                	jbe    4012aa <scramble+0x7>
  4012c0:	8b 44 24 e4          	mov    -0x1c(%rsp),%eax
  4012c4:	69 c0 3b ae 00 00    	imul   $0xae3b,%eax,%eax
  4012ca:	89 44 24 e4          	mov    %eax,-0x1c(%rsp)
  4012ce:	8b 44 24 d4          	mov    -0x2c(%rsp),%eax
  4012d2:	69 c0 ff 4f 00 00    	imul   $0x4fff,%eax,%eax
  4012d8:	89 44 24 d4          	mov    %eax,-0x2c(%rsp)
  4012dc:	8b 44 24 e4          	mov    -0x1c(%rsp),%eax
  4012e0:	69 c0 3f 95 00 00    	imul   $0x953f,%eax,%eax
  4012e6:	89 44 24 e4          	mov    %eax,-0x1c(%rsp)
  4012ea:	8b 44 24 f4          	mov    -0xc(%rsp),%eax
  4012ee:	69 c0 b4 ed 00 00    	imul   $0xedb4,%eax,%eax
  4012f4:	89 44 24 f4          	mov    %eax,-0xc(%rsp)
  4012f8:	8b 44 24 d0          	mov    -0x30(%rsp),%eax
  4012fc:	69 c0 ba 2b 00 00    	imul   $0x2bba,%eax,%eax
  401302:	89 44 24 d0          	mov    %eax,-0x30(%rsp)
  401306:	8b 44 24 dc          	mov    -0x24(%rsp),%eax
  40130a:	69 c0 4c 3d 00 00    	imul   $0x3d4c,%eax,%eax
  401310:	89 44 24 dc          	mov    %eax,-0x24(%rsp)
  401314:	8b 44 24 f0          	mov    -0x10(%rsp),%eax
  401318:	69 c0 e8 bf 00 00    	imul   $0xbfe8,%eax,%eax
  40131e:	89 44 24 f0          	mov    %eax,-0x10(%rsp)
  401322:	8b 44 24 d0          	mov    -0x30(%rsp),%eax
  401326:	69 c0 f2 7b 00 00    	imul   $0x7bf2,%eax,%eax
  40132c:	89 44 24 d0          	mov    %eax,-0x30(%rsp)
  401330:	8b 44 24 d0          	mov    -0x30(%rsp),%eax
  401334:	69 c0 18 5c 00 00    	imul   $0x5c18,%eax,%eax
  40133a:	89 44 24 d0          	mov    %eax,-0x30(%rsp)
  40133e:	8b 44 24 f0          	mov    -0x10(%rsp),%eax
  401342:	69 c0 50 28 00 00    	imul   $0x2850,%eax,%eax
  401348:	89 44 24 f0          	mov    %eax,-0x10(%rsp)
  40134c:	8b 44 24 d0          	mov    -0x30(%rsp),%eax
  401350:	69 c0 14 28 00 00    	imul   $0x2814,%eax,%eax
  401356:	89 44 24 d0          	mov    %eax,-0x30(%rsp)
  40135a:	8b 44 24 f4          	mov    -0xc(%rsp),%eax
  40135e:	69 c0 d6 9e 00 00    	imul   $0x9ed6,%eax,%eax
  401364:	89 44 24 f4          	mov    %eax,-0xc(%rsp)
  401368:	8b 44 24 e4          	mov    -0x1c(%rsp),%eax
  40136c:	69 c0 6c e3 00 00    	imul   $0xe36c,%eax,%eax
  401372:	89 44 24 e4          	mov    %eax,-0x1c(%rsp)
  401376:	8b 44 24 dc          	mov    -0x24(%rsp),%eax
  40137a:	69 c0 f3 a0 00 00    	imul   $0xa0f3,%eax,%eax
  401380:	89 44 24 dc          	mov    %eax,-0x24(%rsp)
  401384:	8b 44 24 e8          	mov    -0x18(%rsp),%eax
  401388:	69 c0 da f8 00 00    	imul   $0xf8da,%eax,%eax
  40138e:	89 44 24 e8          	mov    %eax,-0x18(%rsp)
  401392:	8b 44 24 d0          	mov    -0x30(%rsp),%eax
  401396:	69 c0 7e 34 00 00    	imul   $0x347e,%eax,%eax
  40139c:	89 44 24 d0          	mov    %eax,-0x30(%rsp)
  4013a0:	8b 44 24 dc          	mov    -0x24(%rsp),%eax
  4013a4:	69 c0 01 ef 00 00    	imul   $0xef01,%eax,%eax
  4013aa:	89 44 24 dc          	mov    %eax,-0x24(%rsp)
  4013ae:	8b 44 24 e0          	mov    -0x20(%rsp),%eax
  4013b2:	69 c0 81 de 00 00    	imul   $0xde81,%eax,%eax
  4013b8:	89 44 24 e0          	mov    %eax,-0x20(%rsp)
  4013bc:	8b 44 24 d4          	mov    -0x2c(%rsp),%eax
  4013c0:	69 c0 96 85 00 00    	imul   $0x8596,%eax,%eax
  4013c6:	89 44 24 d4          	mov    %eax,-0x2c(%rsp)
  4013ca:	8b 44 24 d4          	mov    -0x2c(%rsp),%eax
  4013ce:	69 c0 43 78 00 00    	imul   $0x7843,%eax,%eax
  4013d4:	89 44 24 d4          	mov    %eax,-0x2c(%rsp)
  4013d8:	8b 44 24 e0          	mov    -0x20(%rsp),%eax
  4013dc:	69 c0 da 92 00 00    	imul   $0x92da,%eax,%eax
  4013e2:	89 44 24 e0          	mov    %eax,-0x20(%rsp)
  4013e6:	8b 44 24 e0          	mov    -0x20(%rsp),%eax
  4013ea:	69 c0 0c aa 00 00    	imul   $0xaa0c,%eax,%eax
  4013f0:	89 44 24 e0          	mov    %eax,-0x20(%rsp)
  4013f4:	8b 44 24 d0          	mov    -0x30(%rsp),%eax
  4013f8:	69 c0 aa 69 00 00    	imul   $0x69aa,%eax,%eax
  4013fe:	89 44 24 d0          	mov    %eax,-0x30(%rsp)
  401402:	8b 44 24 e0          	mov    -0x20(%rsp),%eax
  401406:	69 c0 c6 a9 00 00    	imul   $0xa9c6,%eax,%eax
  40140c:	89 44 24 e0          	mov    %eax,-0x20(%rsp)
  401410:	8b 44 24 d0          	mov    -0x30(%rsp),%eax
  401414:	69 c0 0c a7 00 00    	imul   $0xa70c,%eax,%eax
  40141a:	89 44 24 d0          	mov    %eax,-0x30(%rsp)
  40141e:	8b 44 24 f0          	mov    -0x10(%rsp),%eax
  401422:	69 c0 42 cb 00 00    	imul   $0xcb42,%eax,%eax
  401428:	89 44 24 f0          	mov    %eax,-0x10(%rsp)
  40142c:	8b 44 24 d0          	mov    -0x30(%rsp),%eax
  401430:	69 c0 d4 4f 00 00    	imul   $0x4fd4,%eax,%eax
  401436:	89 44 24 d0          	mov    %eax,-0x30(%rsp)
  40143a:	8b 44 24 ec          	mov    -0x14(%rsp),%eax
  40143e:	69 c0 b2 f9 00 00    	imul   $0xf9b2,%eax,%eax
  401444:	89 44 24 ec          	mov    %eax,-0x14(%rsp)
  401448:	8b 44 24 e4          	mov    -0x1c(%rsp),%eax
  40144c:	69 c0 59 ee 00 00    	imul   $0xee59,%eax,%eax
  401452:	89 44 24 e4          	mov    %eax,-0x1c(%rsp)
  401456:	8b 44 24 e4          	mov    -0x1c(%rsp),%eax
  40145a:	69 c0 b4 66 00 00    	imul   $0x66b4,%eax,%eax
  401460:	89 44 24 e4          	mov    %eax,-0x1c(%rsp)
  401464:	8b 44 24 f4          	mov    -0xc(%rsp),%eax
  401468:	69 c0 2b 74 00 00    	imul   $0x742b,%eax,%eax
  40146e:	89 44 24 f4          	mov    %eax,-0xc(%rsp)
  401472:	8b 44 24 e0          	mov    -0x20(%rsp),%eax
  401476:	69 c0 49 8e 00 00    	imul   $0x8e49,%eax,%eax
  40147c:	89 44 24 e0          	mov    %eax,-0x20(%rsp)
  401480:	8b 44 24 f0          	mov    -0x10(%rsp),%eax
  401484:	69 c0 b0 1f 00 00    	imul   $0x1fb0,%eax,%eax
  40148a:	89 44 24 f0          	mov    %eax,-0x10(%rsp)
  40148e:	8b 44 24 dc          	mov    -0x24(%rsp),%eax
  401492:	69 c0 6c e7 00 00    	imul   $0xe76c,%eax,%eax
  401498:	89 44 24 dc          	mov    %eax,-0x24(%rsp)
  40149c:	8b 44 24 e8          	mov    -0x18(%rsp),%eax
  4014a0:	69 c0 00 39 00 00    	imul   $0x3900,%eax,%eax
  4014a6:	89 44 24 e8          	mov    %eax,-0x18(%rsp)
  4014aa:	8b 44 24 e0          	mov    -0x20(%rsp),%eax
  4014ae:	69 c0 98 56 00 00    	imul   $0x5698,%eax,%eax
  4014b4:	89 44 24 e0          	mov    %eax,-0x20(%rsp)
  4014b8:	8b 44 24 d0          	mov    -0x30(%rsp),%eax
  4014bc:	69 c0 40 15 00 00    	imul   $0x1540,%eax,%eax
  4014c2:	89 44 24 d0          	mov    %eax,-0x30(%rsp)
  4014c6:	8b 44 24 e0          	mov    -0x20(%rsp),%eax
  4014ca:	69 c0 9c 1e 00 00    	imul   $0x1e9c,%eax,%eax
  4014d0:	89 44 24 e0          	mov    %eax,-0x20(%rsp)
  4014d4:	8b 44 24 e8          	mov    -0x18(%rsp),%eax
  4014d8:	69 c0 a2 26 00 00    	imul   $0x26a2,%eax,%eax
  4014de:	89 44 24 e8          	mov    %eax,-0x18(%rsp)
  4014e2:	8b 44 24 d8          	mov    -0x28(%rsp),%eax
  4014e6:	69 c0 ac 44 00 00    	imul   $0x44ac,%eax,%eax
  4014ec:	89 44 24 d8          	mov    %eax,-0x28(%rsp)
  4014f0:	8b 44 24 d8          	mov    -0x28(%rsp),%eax
  4014f4:	69 c0 78 9a 00 00    	imul   $0x9a78,%eax,%eax
  4014fa:	89 44 24 d8          	mov    %eax,-0x28(%rsp)
  4014fe:	8b 44 24 d0          	mov    -0x30(%rsp),%eax
  401502:	69 c0 cf 9c 00 00    	imul   $0x9ccf,%eax,%eax
  401508:	89 44 24 d0          	mov    %eax,-0x30(%rsp)
  40150c:	8b 44 24 dc          	mov    -0x24(%rsp),%eax
  401510:	69 c0 06 7a 00 00    	imul   $0x7a06,%eax,%eax
  401516:	89 44 24 dc          	mov    %eax,-0x24(%rsp)
  40151a:	8b 44 24 dc          	mov    -0x24(%rsp),%eax
  40151e:	69 c0 8d 1d 00 00    	imul   $0x1d8d,%eax,%eax
  401524:	89 44 24 dc          	mov    %eax,-0x24(%rsp)
  401528:	8b 44 24 d0          	mov    -0x30(%rsp),%eax
  40152c:	69 c0 26 31 00 00    	imul   $0x3126,%eax,%eax
  401532:	89 44 24 d0          	mov    %eax,-0x30(%rsp)
  401536:	8b 44 24 d8          	mov    -0x28(%rsp),%eax
  40153a:	69 c0 92 4f 00 00    	imul   $0x4f92,%eax,%eax
  401540:	89 44 24 d8          	mov    %eax,-0x28(%rsp)
  401544:	8b 44 24 e0          	mov    -0x20(%rsp),%eax
  401548:	69 c0 75 1f 00 00    	imul   $0x1f75,%eax,%eax
  40154e:	89 44 24 e0          	mov    %eax,-0x20(%rsp)
  401552:	8b 44 24 e4          	mov    -0x1c(%rsp),%eax
  401556:	69 c0 7e 08 00 00    	imul   $0x87e,%eax,%eax
  40155c:	89 44 24 e4          	mov    %eax,-0x1c(%rsp)
  401560:	8b 44 24 ec          	mov    -0x14(%rsp),%eax
  401564:	69 c0 a6 4a 00 00    	imul   $0x4aa6,%eax,%eax
  40156a:	89 44 24 ec          	mov    %eax,-0x14(%rsp)
  40156e:	8b 44 24 e0          	mov    -0x20(%rsp),%eax
  401572:	69 c0 6c e4 00 00    	imul   $0xe46c,%eax,%eax
  401578:	89 44 24 e0          	mov    %eax,-0x20(%rsp)
  40157c:	8b 44 24 e0          	mov    -0x20(%rsp),%eax
  401580:	69 c0 9b 4f 00 00    	imul   $0x4f9b,%eax,%eax
  401586:	89 44 24 e0          	mov    %eax,-0x20(%rsp)
  40158a:	8b 44 24 e4          	mov    -0x1c(%rsp),%eax
  40158e:	69 c0 80 4f 00 00    	imul   $0x4f80,%eax,%eax
  401594:	89 44 24 e4          	mov    %eax,-0x1c(%rsp)
  401598:	8b 44 24 f0          	mov    -0x10(%rsp),%eax
  40159c:	69 c0 a8 3b 00 00    	imul   $0x3ba8,%eax,%eax
  4015a2:	89 44 24 f0          	mov    %eax,-0x10(%rsp)
  4015a6:	8b 44 24 e8          	mov    -0x18(%rsp),%eax
  4015aa:	69 c0 c5 e3 00 00    	imul   $0xe3c5,%eax,%eax
  4015b0:	89 44 24 e8          	mov    %eax,-0x18(%rsp)
  4015b4:	8b 44 24 d4          	mov    -0x2c(%rsp),%eax
  4015b8:	69 c0 7e 36 00 00    	imul   $0x367e,%eax,%eax
  4015be:	89 44 24 d4          	mov    %eax,-0x2c(%rsp)
  4015c2:	8b 44 24 e0          	mov    -0x20(%rsp),%eax
  4015c6:	69 c0 f9 2f 00 00    	imul   $0x2ff9,%eax,%eax
  4015cc:	89 44 24 e0          	mov    %eax,-0x20(%rsp)
  4015d0:	8b 44 24 e0          	mov    -0x20(%rsp),%eax
  4015d4:	69 c0 5f 38 00 00    	imul   $0x385f,%eax,%eax
  4015da:	89 44 24 e0          	mov    %eax,-0x20(%rsp)
  4015de:	8b 44 24 f4          	mov    -0xc(%rsp),%eax
  4015e2:	69 c0 43 bb 00 00    	imul   $0xbb43,%eax,%eax
  4015e8:	89 44 24 f4          	mov    %eax,-0xc(%rsp)
  4015ec:	8b 44 24 e0          	mov    -0x20(%rsp),%eax
  4015f0:	69 c0 49 63 00 00    	imul   $0x6349,%eax,%eax
  4015f6:	89 44 24 e0          	mov    %eax,-0x20(%rsp)
  4015fa:	8b 44 24 f4          	mov    -0xc(%rsp),%eax
  4015fe:	69 c0 c4 1a 00 00    	imul   $0x1ac4,%eax,%eax
  401604:	89 44 24 f4          	mov    %eax,-0xc(%rsp)
  401608:	8b 44 24 d0          	mov    -0x30(%rsp),%eax
  40160c:	69 c0 12 5d 00 00    	imul   $0x5d12,%eax,%eax
  401612:	89 44 24 d0          	mov    %eax,-0x30(%rsp)
  401616:	8b 44 24 ec          	mov    -0x14(%rsp),%eax
  40161a:	69 c0 c1 39 00 00    	imul   $0x39c1,%eax,%eax
  401620:	89 44 24 ec          	mov    %eax,-0x14(%rsp)
  401624:	8b 44 24 d0          	mov    -0x30(%rsp),%eax
  401628:	69 c0 32 48 00 00    	imul   $0x4832,%eax,%eax
  40162e:	89 44 24 d0          	mov    %eax,-0x30(%rsp)
  401632:	8b 44 24 d4          	mov    -0x2c(%rsp),%eax
  401636:	69 c0 ad bb 00 00    	imul   $0xbbad,%eax,%eax
  40163c:	89 44 24 d4          	mov    %eax,-0x2c(%rsp)
  401640:	8b 44 24 d4          	mov    -0x2c(%rsp),%eax
  401644:	69 c0 2b 32 00 00    	imul   $0x322b,%eax,%eax
  40164a:	89 44 24 d4          	mov    %eax,-0x2c(%rsp)
  40164e:	8b 44 24 d8          	mov    -0x28(%rsp),%eax
  401652:	69 c0 7f 16 00 00    	imul   $0x167f,%eax,%eax
  401658:	89 44 24 d8          	mov    %eax,-0x28(%rsp)
  40165c:	8b 44 24 e8          	mov    -0x18(%rsp),%eax
  401660:	69 c0 1e db 00 00    	imul   $0xdb1e,%eax,%eax
  401666:	89 44 24 e8          	mov    %eax,-0x18(%rsp)
  40166a:	8b 44 24 e0          	mov    -0x20(%rsp),%eax
  40166e:	69 c0 a1 e6 00 00    	imul   $0xe6a1,%eax,%eax
  401674:	89 44 24 e0          	mov    %eax,-0x20(%rsp)
  401678:	8b 44 24 f0          	mov    -0x10(%rsp),%eax
  40167c:	69 c0 1c d4 00 00    	imul   $0xd41c,%eax,%eax
  401682:	89 44 24 f0          	mov    %eax,-0x10(%rsp)
  401686:	8b 44 24 e4          	mov    -0x1c(%rsp),%eax
  40168a:	69 c0 11 79 00 00    	imul   $0x7911,%eax,%eax
  401690:	89 44 24 e4          	mov    %eax,-0x1c(%rsp)
  401694:	8b 44 24 e0          	mov    -0x20(%rsp),%eax
  401698:	69 c0 d7 f2 00 00    	imul   $0xf2d7,%eax,%eax
  40169e:	89 44 24 e0          	mov    %eax,-0x20(%rsp)
  4016a2:	8b 44 24 e8          	mov    -0x18(%rsp),%eax
  4016a6:	69 c0 91 db 00 00    	imul   $0xdb91,%eax,%eax
  4016ac:	89 44 24 e8          	mov    %eax,-0x18(%rsp)
  4016b0:	8b 44 24 e8          	mov    -0x18(%rsp),%eax
  4016b4:	69 c0 d2 75 00 00    	imul   $0x75d2,%eax,%eax
  4016ba:	89 44 24 e8          	mov    %eax,-0x18(%rsp)
  4016be:	8b 44 24 d4          	mov    -0x2c(%rsp),%eax
  4016c2:	69 c0 9b dd 00 00    	imul   $0xdd9b,%eax,%eax
  4016c8:	89 44 24 d4          	mov    %eax,-0x2c(%rsp)
  4016cc:	8b 44 24 f4          	mov    -0xc(%rsp),%eax
  4016d0:	69 c0 a5 6f 00 00    	imul   $0x6fa5,%eax,%eax
  4016d6:	89 44 24 f4          	mov    %eax,-0xc(%rsp)
  4016da:	8b 44 24 f4          	mov    -0xc(%rsp),%eax
  4016de:	69 c0 8a 6d 00 00    	imul   $0x6d8a,%eax,%eax
  4016e4:	89 44 24 f4          	mov    %eax,-0xc(%rsp)
  4016e8:	8b 44 24 e0          	mov    -0x20(%rsp),%eax
  4016ec:	69 c0 b5 62 00 00    	imul   $0x62b5,%eax,%eax
  4016f2:	89 44 24 e0          	mov    %eax,-0x20(%rsp)
  4016f6:	8b 44 24 d0          	mov    -0x30(%rsp),%eax
  4016fa:	69 c0 3f 49 00 00    	imul   $0x493f,%eax,%eax
  401700:	89 44 24 d0          	mov    %eax,-0x30(%rsp)
  401704:	8b 44 24 d0          	mov    -0x30(%rsp),%eax
  401708:	69 c0 8c e9 00 00    	imul   $0xe98c,%eax,%eax
  40170e:	89 44 24 d0          	mov    %eax,-0x30(%rsp)
  401712:	8b 44 24 dc          	mov    -0x24(%rsp),%eax
  401716:	69 c0 c1 3d 00 00    	imul   $0x3dc1,%eax,%eax
  40171c:	89 44 24 dc          	mov    %eax,-0x24(%rsp)
  401720:	8b 44 24 f0          	mov    -0x10(%rsp),%eax
  401724:	69 c0 05 a5 00 00    	imul   $0xa505,%eax,%eax
  40172a:	89 44 24 f0          	mov    %eax,-0x10(%rsp)
  40172e:	ba 00 00 00 00       	mov    $0x0,%edx
  401733:	b8 00 00 00 00       	mov    $0x0,%eax
  401738:	eb 0b                	jmp    401745 <scramble+0x4a2>
  40173a:	89 d1                	mov    %edx,%ecx
  40173c:	8b 4c 8c d0          	mov    -0x30(%rsp,%rcx,4),%ecx
  401740:	01 c8                	add    %ecx,%eax
  401742:	83 c2 01             	add    $0x1,%edx
  401745:	83 fa 09             	cmp    $0x9,%edx
  401748:	76 f0                	jbe    40173a <scramble+0x497>
  40174a:	f3 c3                	repz retq 

000000000040174c <getbuf>:
  40174c:	48 83 ec 38          	sub    $0x38,%rsp
  401750:	48 89 e7             	mov    %rsp,%rdi
  401753:	e8 52 03 00 00       	callq  401aaa <Gets>
  401758:	b8 01 00 00 00       	mov    $0x1,%eax
  40175d:	48 83 c4 38          	add    $0x38,%rsp
  401761:	c3                   	retq   

0000000000401762 <touch1>:
  401762:	48 83 ec 08          	sub    $0x8,%rsp
  401766:	c7 05 8c 3d 20 00 01 	movl   $0x1,0x203d8c(%rip)        # 6054fc <vlevel>
  40176d:	00 00 00 
  401770:	bf d3 30 40 00       	mov    $0x4030d3,%edi
  401775:	e8 d6 f4 ff ff       	callq  400c50 <puts@plt>
  40177a:	bf 01 00 00 00       	mov    $0x1,%edi
  40177f:	e8 15 05 00 00       	callq  401c99 <validate>
  401784:	bf 00 00 00 00       	mov    $0x0,%edi
  401789:	e8 62 f6 ff ff       	callq  400df0 <exit@plt>

000000000040178e <touch2>:
  40178e:	48 83 ec 08          	sub    $0x8,%rsp
  401792:	89 fe                	mov    %edi,%esi
  401794:	c7 05 5e 3d 20 00 02 	movl   $0x2,0x203d5e(%rip)        # 6054fc <vlevel>
  40179b:	00 00 00 
  40179e:	3b 3d 60 3d 20 00    	cmp    0x203d60(%rip),%edi        # 605504 <cookie>
  4017a4:	75 1b                	jne    4017c1 <touch2+0x33>
  4017a6:	bf f8 30 40 00       	mov    $0x4030f8,%edi
  4017ab:	b8 00 00 00 00       	mov    $0x0,%eax
  4017b0:	e8 cb f4 ff ff       	callq  400c80 <printf@plt>
  4017b5:	bf 02 00 00 00       	mov    $0x2,%edi
  4017ba:	e8 da 04 00 00       	callq  401c99 <validate>
  4017bf:	eb 19                	jmp    4017da <touch2+0x4c>
  4017c1:	bf 20 31 40 00       	mov    $0x403120,%edi
  4017c6:	b8 00 00 00 00       	mov    $0x0,%eax
  4017cb:	e8 b0 f4 ff ff       	callq  400c80 <printf@plt>
  4017d0:	bf 02 00 00 00       	mov    $0x2,%edi
  4017d5:	e8 71 05 00 00       	callq  401d4b <fail>
  4017da:	bf 00 00 00 00       	mov    $0x0,%edi
  4017df:	e8 0c f6 ff ff       	callq  400df0 <exit@plt>

00000000004017e4 <hexmatch>:
  4017e4:	41 54                	push   %r12
  4017e6:	55                   	push   %rbp
  4017e7:	53                   	push   %rbx
  4017e8:	48 83 ec 70          	sub    $0x70,%rsp
  4017ec:	41 89 fc             	mov    %edi,%r12d
  4017ef:	48 89 f5             	mov    %rsi,%rbp
  4017f2:	e8 59 f5 ff ff       	callq  400d50 <random@plt>
  4017f7:	48 89 c1             	mov    %rax,%rcx
  4017fa:	48 ba 0b d7 a3 70 3d 	movabs $0xa3d70a3d70a3d70b,%rdx
  401801:	0a d7 a3 
  401804:	48 f7 ea             	imul   %rdx
  401807:	48 8d 04 0a          	lea    (%rdx,%rcx,1),%rax
  40180b:	48 c1 f8 06          	sar    $0x6,%rax
  40180f:	48 89 ce             	mov    %rcx,%rsi
  401812:	48 c1 fe 3f          	sar    $0x3f,%rsi
  401816:	48 29 f0             	sub    %rsi,%rax
  401819:	48 8d 04 80          	lea    (%rax,%rax,4),%rax
  40181d:	48 8d 04 80          	lea    (%rax,%rax,4),%rax
  401821:	48 c1 e0 02          	shl    $0x2,%rax
  401825:	48 29 c1             	sub    %rax,%rcx
  401828:	48 8d 1c 0c          	lea    (%rsp,%rcx,1),%rbx
  40182c:	44 89 e2             	mov    %r12d,%edx
  40182f:	be f0 30 40 00       	mov    $0x4030f0,%esi
  401834:	48 89 df             	mov    %rbx,%rdi
  401837:	b8 00 00 00 00       	mov    $0x0,%eax
  40183c:	e8 9f f5 ff ff       	callq  400de0 <sprintf@plt>
  401841:	ba 09 00 00 00       	mov    $0x9,%edx
  401846:	48 89 de             	mov    %rbx,%rsi
  401849:	48 89 ef             	mov    %rbp,%rdi
  40184c:	e8 df f3 ff ff       	callq  400c30 <strncmp@plt>
  401851:	85 c0                	test   %eax,%eax
  401853:	0f 94 c0             	sete   %al
  401856:	0f b6 c0             	movzbl %al,%eax
  401859:	48 83 c4 70          	add    $0x70,%rsp
  40185d:	5b                   	pop    %rbx
  40185e:	5d                   	pop    %rbp
  40185f:	41 5c                	pop    %r12
  401861:	c3                   	retq   

0000000000401862 <touch3>:
  401862:	53                   	push   %rbx
  401863:	48 89 fb             	mov    %rdi,%rbx
  401866:	c7 05 8c 3c 20 00 03 	movl   $0x3,0x203c8c(%rip)        # 6054fc <vlevel>
  40186d:	00 00 00 
  401870:	48 89 fe             	mov    %rdi,%rsi
  401873:	8b 3d 8b 3c 20 00    	mov    0x203c8b(%rip),%edi        # 605504 <cookie>
  401879:	e8 66 ff ff ff       	callq  4017e4 <hexmatch>
  40187e:	85 c0                	test   %eax,%eax
  401880:	74 1e                	je     4018a0 <touch3+0x3e>
  401882:	48 89 de             	mov    %rbx,%rsi
  401885:	bf 48 31 40 00       	mov    $0x403148,%edi
  40188a:	b8 00 00 00 00       	mov    $0x0,%eax
  40188f:	e8 ec f3 ff ff       	callq  400c80 <printf@plt>
  401894:	bf 03 00 00 00       	mov    $0x3,%edi
  401899:	e8 fb 03 00 00       	callq  401c99 <validate>
  40189e:	eb 1c                	jmp    4018bc <touch3+0x5a>
  4018a0:	48 89 de             	mov    %rbx,%rsi
  4018a3:	bf 70 31 40 00       	mov    $0x403170,%edi
  4018a8:	b8 00 00 00 00       	mov    $0x0,%eax
  4018ad:	e8 ce f3 ff ff       	callq  400c80 <printf@plt>
  4018b2:	bf 03 00 00 00       	mov    $0x3,%edi
  4018b7:	e8 8f 04 00 00       	callq  401d4b <fail>
  4018bc:	bf 00 00 00 00       	mov    $0x0,%edi
  4018c1:	e8 2a f5 ff ff       	callq  400df0 <exit@plt>

00000000004018c6 <test>:
  4018c6:	48 83 ec 08          	sub    $0x8,%rsp
  4018ca:	b8 00 00 00 00       	mov    $0x0,%eax
  4018cf:	e8 78 fe ff ff       	callq  40174c <getbuf>
  4018d4:	89 c6                	mov    %eax,%esi
  4018d6:	bf 98 31 40 00       	mov    $0x403198,%edi
  4018db:	b8 00 00 00 00       	mov    $0x0,%eax
  4018e0:	e8 9b f3 ff ff       	callq  400c80 <printf@plt>
  4018e5:	48 83 c4 08          	add    $0x8,%rsp
  4018e9:	c3                   	retq   

00000000004018ea <start_farm>:
  4018ea:	b8 01 00 00 00       	mov    $0x1,%eax
  4018ef:	c3                   	retq   

00000000004018f0 <setval_408>:
  4018f0:	c7 07 18 18 90 90    	movl   $0x90901818,(%rdi)
  4018f6:	c3                   	retq   

00000000004018f7 <setval_366>:
  4018f7:	c7 07 48 89 c7 c3    	movl   $0xc3c78948,(%rdi)
  4018fd:	c3                   	retq   

00000000004018fe <addval_241>:
  4018fe:	8d 87 78 90 90 c3    	lea    -0x3c6f6f88(%rdi),%eax
  401904:	c3                   	retq   

0000000000401905 <getval_172>:
  401905:	b8 48 89 c7 c2       	mov    $0xc2c78948,%eax
  40190a:	c3                   	retq   

000000000040190b <setval_227>:
  40190b:	c7 07 d1 48 89 c7    	movl   $0xc78948d1,(%rdi)
  401911:	c3                   	retq   

0000000000401912 <setval_104>:
  401912:	c7 07 48 09 c7 c3    	movl   $0xc3c70948,(%rdi)
  401918:	c3                   	retq   

0000000000401919 <getval_352>:
  401919:	b8 a2 21 d7 58       	mov    $0x58d721a2,%eax
  40191e:	c3                   	retq   

000000000040191f <addval_443>:
  40191f:	8d 87 95 54 58 90    	lea    -0x6fa7ab6b(%rdi),%eax
  401925:	c3                   	retq   

0000000000401926 <mid_farm>:
  401926:	b8 01 00 00 00       	mov    $0x1,%eax
  40192b:	c3                   	retq   

000000000040192c <add_xy>:
  40192c:	48 8d 04 37          	lea    (%rdi,%rsi,1),%rax
  401930:	c3                   	retq   

0000000000401931 <getval_213>:
  401931:	b8 89 d1 38 c9       	mov    $0xc938d189,%eax
  401936:	c3                   	retq   

0000000000401937 <setval_376>:
  401937:	c7 07 e2 48 8d e0    	movl   $0xe08d48e2,(%rdi)
  40193d:	c3                   	retq   

000000000040193e <setval_223>:
  40193e:	c7 07 a1 89 c2 94    	movl   $0x94c289a1,(%rdi)
  401944:	c3                   	retq   

0000000000401945 <setval_390>:
  401945:	c7 07 48 89 e0 91    	movl   $0x91e08948,(%rdi)
  40194b:	c3                   	retq   

000000000040194c <setval_200>:
  40194c:	c7 07 89 ce 28 d2    	movl   $0xd228ce89,(%rdi)
  401952:	c3                   	retq   

0000000000401953 <setval_427>:
  401953:	c7 07 12 48 c9 e0    	movl   $0xe0c94812,(%rdi)
  401959:	c3                   	retq   

000000000040195a <addval_454>:
  40195a:	8d 87 09 c2 84 db    	lea    -0x247b3df7(%rdi),%eax
  401960:	c3                   	retq   

0000000000401961 <addval_467>:
  401961:	8d 87 99 c2 08 db    	lea    -0x24f73d67(%rdi),%eax
  401967:	c3                   	retq   

0000000000401968 <addval_492>:
  401968:	8d 87 89 d1 c2 09    	lea    0x9c2d189(%rdi),%eax
  40196e:	c3                   	retq   

000000000040196f <getval_204>:
  40196f:	b8 89 ce 18 d2       	mov    $0xd218ce89,%eax
  401974:	c3                   	retq   

0000000000401975 <addval_435>:
  401975:	8d 87 89 d1 20 d2    	lea    -0x2ddf2e77(%rdi),%eax
  40197b:	c3                   	retq   

000000000040197c <addval_216>:
  40197c:	8d 87 89 d1 78 db    	lea    -0x24872e77(%rdi),%eax
  401982:	c3                   	retq   

0000000000401983 <getval_378>:
  401983:	b8 89 d1 78 c0       	mov    $0xc078d189,%eax
  401988:	c3                   	retq   

0000000000401989 <getval_318>:
  401989:	b8 40 89 e0 c3       	mov    $0xc3e08940,%eax
  40198e:	c3                   	retq   

000000000040198f <addval_401>:
  40198f:	8d 87 89 ce 38 c0    	lea    -0x3fc73177(%rdi),%eax
  401995:	c3                   	retq   

0000000000401996 <getval_361>:
  401996:	b8 48 89 e0 c1       	mov    $0xc1e08948,%eax
  40199b:	c3                   	retq   

000000000040199c <addval_486>:
  40199c:	8d 87 09 d1 84 d2    	lea    -0x2d7b2ef7(%rdi),%eax
  4019a2:	c3                   	retq   

00000000004019a3 <addval_150>:
  4019a3:	8d 87 89 ce 38 db    	lea    -0x24c73177(%rdi),%eax
  4019a9:	c3                   	retq   

00000000004019aa <addval_423>:
  4019aa:	8d 87 48 89 e0 c3    	lea    -0x3c1f76b8(%rdi),%eax
  4019b0:	c3                   	retq   

00000000004019b1 <setval_214>:
  4019b1:	c7 07 7e a9 ce 90    	movl   $0x90cea97e,(%rdi)
  4019b7:	c3                   	retq   

00000000004019b8 <addval_141>:
  4019b8:	8d 87 09 ce 20 c0    	lea    -0x3fdf31f7(%rdi),%eax
  4019be:	c3                   	retq   

00000000004019bf <setval_109>:
  4019bf:	c7 07 d6 48 89 e0    	movl   $0xe08948d6,(%rdi)
  4019c5:	c3                   	retq   

00000000004019c6 <addval_126>:
  4019c6:	8d 87 88 c2 38 c9    	lea    -0x36c73d78(%rdi),%eax
  4019cc:	c3                   	retq   

00000000004019cd <getval_173>:
  4019cd:	b8 48 89 e0 92       	mov    $0x92e08948,%eax
  4019d2:	c3                   	retq   

00000000004019d3 <addval_442>:
  4019d3:	8d 87 a9 c2 08 c0    	lea    -0x3ff73d57(%rdi),%eax
  4019d9:	c3                   	retq   

00000000004019da <setval_278>:
  4019da:	c7 07 21 89 ce 91    	movl   $0x91ce8921,(%rdi)
  4019e0:	c3                   	retq   

00000000004019e1 <setval_195>:
  4019e1:	c7 07 8b d1 20 c9    	movl   $0xc920d18b,(%rdi)
  4019e7:	c3                   	retq   

00000000004019e8 <setval_388>:
  4019e8:	c7 07 8d d1 08 d2    	movl   $0xd208d18d,(%rdi)
  4019ee:	c3                   	retq   

00000000004019ef <getval_128>:
  4019ef:	b8 89 c2 38 d2       	mov    $0xd238c289,%eax
  4019f4:	c3                   	retq   

00000000004019f5 <setval_187>:
  4019f5:	c7 07 89 c2 84 c9    	movl   $0xc984c289,(%rdi)
  4019fb:	c3                   	retq   

00000000004019fc <setval_299>:
  4019fc:	c7 07 89 ce 18 c9    	movl   $0xc918ce89,(%rdi)
  401a02:	c3                   	retq   

0000000000401a03 <getval_406>:
  401a03:	b8 89 c2 90 c1       	mov    $0xc190c289,%eax
  401a08:	c3                   	retq   

0000000000401a09 <end_farm>:
  401a09:	b8 01 00 00 00       	mov    $0x1,%eax
  401a0e:	c3                   	retq   
  401a0f:	90                   	nop

0000000000401a10 <save_char>:
  401a10:	8b 05 0e 47 20 00    	mov    0x20470e(%rip),%eax        # 606124 <gets_cnt>
  401a16:	3d ff 03 00 00       	cmp    $0x3ff,%eax
  401a1b:	7f 49                	jg     401a66 <save_char+0x56>
  401a1d:	8d 14 40             	lea    (%rax,%rax,2),%edx
  401a20:	89 f9                	mov    %edi,%ecx
  401a22:	c0 e9 04             	shr    $0x4,%cl
  401a25:	83 e1 0f             	and    $0xf,%ecx
  401a28:	0f b6 b1 c0 34 40 00 	movzbl 0x4034c0(%rcx),%esi
  401a2f:	48 63 ca             	movslq %edx,%rcx
  401a32:	40 88 b1 20 55 60 00 	mov    %sil,0x605520(%rcx)
  401a39:	8d 4a 01             	lea    0x1(%rdx),%ecx
  401a3c:	83 e7 0f             	and    $0xf,%edi
  401a3f:	0f b6 b7 c0 34 40 00 	movzbl 0x4034c0(%rdi),%esi
  401a46:	48 63 c9             	movslq %ecx,%rcx
  401a49:	40 88 b1 20 55 60 00 	mov    %sil,0x605520(%rcx)
  401a50:	83 c2 02             	add    $0x2,%edx
  401a53:	48 63 d2             	movslq %edx,%rdx
  401a56:	c6 82 20 55 60 00 20 	movb   $0x20,0x605520(%rdx)
  401a5d:	83 c0 01             	add    $0x1,%eax
  401a60:	89 05 be 46 20 00    	mov    %eax,0x2046be(%rip)        # 606124 <gets_cnt>
  401a66:	f3 c3                	repz retq 

0000000000401a68 <save_term>:
  401a68:	8b 05 b6 46 20 00    	mov    0x2046b6(%rip),%eax        # 606124 <gets_cnt>
  401a6e:	8d 04 40             	lea    (%rax,%rax,2),%eax
  401a71:	48 98                	cltq   
  401a73:	c6 80 20 55 60 00 00 	movb   $0x0,0x605520(%rax)
  401a7a:	c3                   	retq   

0000000000401a7b <check_fail>:
  401a7b:	48 83 ec 08          	sub    $0x8,%rsp
  401a7f:	0f be 35 a2 46 20 00 	movsbl 0x2046a2(%rip),%esi        # 606128 <target_prefix>
  401a86:	b9 20 55 60 00       	mov    $0x605520,%ecx
  401a8b:	8b 15 67 3a 20 00    	mov    0x203a67(%rip),%edx        # 6054f8 <check_level>
  401a91:	bf bb 31 40 00       	mov    $0x4031bb,%edi
  401a96:	b8 00 00 00 00       	mov    $0x0,%eax
  401a9b:	e8 e0 f1 ff ff       	callq  400c80 <printf@plt>
  401aa0:	bf 01 00 00 00       	mov    $0x1,%edi
  401aa5:	e8 46 f3 ff ff       	callq  400df0 <exit@plt>

0000000000401aaa <Gets>:
  401aaa:	41 54                	push   %r12
  401aac:	55                   	push   %rbp
  401aad:	53                   	push   %rbx
  401aae:	49 89 fc             	mov    %rdi,%r12
  401ab1:	c7 05 69 46 20 00 00 	movl   $0x0,0x204669(%rip)        # 606124 <gets_cnt>
  401ab8:	00 00 00 
  401abb:	48 89 fb             	mov    %rdi,%rbx
  401abe:	eb 11                	jmp    401ad1 <Gets+0x27>
  401ac0:	48 8d 6b 01          	lea    0x1(%rbx),%rbp
  401ac4:	88 03                	mov    %al,(%rbx)
  401ac6:	0f b6 f8             	movzbl %al,%edi
  401ac9:	e8 42 ff ff ff       	callq  401a10 <save_char>
  401ace:	48 89 eb             	mov    %rbp,%rbx
  401ad1:	48 8b 3d 18 3a 20 00 	mov    0x203a18(%rip),%rdi        # 6054f0 <infile>
  401ad8:	e8 83 f2 ff ff       	callq  400d60 <_IO_getc@plt>
  401add:	83 f8 ff             	cmp    $0xffffffff,%eax
  401ae0:	74 05                	je     401ae7 <Gets+0x3d>
  401ae2:	83 f8 0a             	cmp    $0xa,%eax
  401ae5:	75 d9                	jne    401ac0 <Gets+0x16>
  401ae7:	c6 03 00             	movb   $0x0,(%rbx)
  401aea:	b8 00 00 00 00       	mov    $0x0,%eax
  401aef:	e8 74 ff ff ff       	callq  401a68 <save_term>
  401af4:	4c 89 e0             	mov    %r12,%rax
  401af7:	5b                   	pop    %rbx
  401af8:	5d                   	pop    %rbp
  401af9:	41 5c                	pop    %r12
  401afb:	c3                   	retq   

0000000000401afc <notify_server>:
  401afc:	83 3d 05 3a 20 00 00 	cmpl   $0x0,0x203a05(%rip)        # 605508 <is_checker>
  401b03:	0f 85 8e 01 00 00    	jne    401c97 <notify_server+0x19b>
  401b09:	53                   	push   %rbx
  401b0a:	48 81 ec 10 40 00 00 	sub    $0x4010,%rsp
  401b11:	89 fb                	mov    %edi,%ebx
  401b13:	8b 05 0b 46 20 00    	mov    0x20460b(%rip),%eax        # 606124 <gets_cnt>
  401b19:	83 c0 64             	add    $0x64,%eax
  401b1c:	3d 00 20 00 00       	cmp    $0x2000,%eax
  401b21:	7e 19                	jle    401b3c <notify_server+0x40>
  401b23:	bf f0 32 40 00       	mov    $0x4032f0,%edi
  401b28:	b8 00 00 00 00       	mov    $0x0,%eax
  401b2d:	e8 4e f1 ff ff       	callq  400c80 <printf@plt>
  401b32:	bf 01 00 00 00       	mov    $0x1,%edi
  401b37:	e8 b4 f2 ff ff       	callq  400df0 <exit@plt>
  401b3c:	44 0f be 0d e4 45 20 	movsbl 0x2045e4(%rip),%r9d        # 606128 <target_prefix>
  401b43:	00 
  401b44:	83 3d 5d 39 20 00 00 	cmpl   $0x0,0x20395d(%rip)        # 6054a8 <notify>
  401b4b:	74 09                	je     401b56 <notify_server+0x5a>
  401b4d:	44 8b 05 ac 39 20 00 	mov    0x2039ac(%rip),%r8d        # 605500 <authkey>
  401b54:	eb 06                	jmp    401b5c <notify_server+0x60>
  401b56:	41 b8 ff ff ff ff    	mov    $0xffffffff,%r8d
  401b5c:	85 db                	test   %ebx,%ebx
  401b5e:	74 07                	je     401b67 <notify_server+0x6b>
  401b60:	b9 d1 31 40 00       	mov    $0x4031d1,%ecx
  401b65:	eb 05                	jmp    401b6c <notify_server+0x70>
  401b67:	b9 d6 31 40 00       	mov    $0x4031d6,%ecx
  401b6c:	48 c7 44 24 08 20 55 	movq   $0x605520,0x8(%rsp)
  401b73:	60 00 
  401b75:	89 34 24             	mov    %esi,(%rsp)
  401b78:	8b 15 ea 35 20 00    	mov    0x2035ea(%rip),%edx        # 605168 <target_id>
  401b7e:	be db 31 40 00       	mov    $0x4031db,%esi
  401b83:	48 8d bc 24 10 20 00 	lea    0x2010(%rsp),%rdi
  401b8a:	00 
  401b8b:	b8 00 00 00 00       	mov    $0x0,%eax
  401b90:	e8 4b f2 ff ff       	callq  400de0 <sprintf@plt>
  401b95:	83 3d 0c 39 20 00 00 	cmpl   $0x0,0x20390c(%rip)        # 6054a8 <notify>
  401b9c:	74 78                	je     401c16 <notify_server+0x11a>
  401b9e:	85 db                	test   %ebx,%ebx
  401ba0:	74 68                	je     401c0a <notify_server+0x10e>
  401ba2:	4c 8d 4c 24 10       	lea    0x10(%rsp),%r9
  401ba7:	41 b8 00 00 00 00    	mov    $0x0,%r8d
  401bad:	48 8d 8c 24 10 20 00 	lea    0x2010(%rsp),%rcx
  401bb4:	00 
  401bb5:	48 8b 15 b4 35 20 00 	mov    0x2035b4(%rip),%rdx        # 605170 <lab>
  401bbc:	48 8b 35 b5 35 20 00 	mov    0x2035b5(%rip),%rsi        # 605178 <course>
  401bc3:	48 8b 3d 96 35 20 00 	mov    0x203596(%rip),%rdi        # 605160 <user_id>
  401bca:	e8 94 0f 00 00       	callq  402b63 <driver_post>
  401bcf:	85 c0                	test   %eax,%eax
  401bd1:	79 1e                	jns    401bf1 <notify_server+0xf5>
  401bd3:	48 8d 74 24 10       	lea    0x10(%rsp),%rsi
  401bd8:	bf f7 31 40 00       	mov    $0x4031f7,%edi
  401bdd:	b8 00 00 00 00       	mov    $0x0,%eax
  401be2:	e8 99 f0 ff ff       	callq  400c80 <printf@plt>
  401be7:	bf 01 00 00 00       	mov    $0x1,%edi
  401bec:	e8 ff f1 ff ff       	callq  400df0 <exit@plt>
  401bf1:	bf 20 33 40 00       	mov    $0x403320,%edi
  401bf6:	e8 55 f0 ff ff       	callq  400c50 <puts@plt>
  401bfb:	bf 03 32 40 00       	mov    $0x403203,%edi
  401c00:	e8 4b f0 ff ff       	callq  400c50 <puts@plt>
  401c05:	e9 85 00 00 00       	jmpq   401c8f <notify_server+0x193>
  401c0a:	bf 0d 32 40 00       	mov    $0x40320d,%edi
  401c0f:	e8 3c f0 ff ff       	callq  400c50 <puts@plt>
  401c14:	eb 79                	jmp    401c8f <notify_server+0x193>
  401c16:	85 db                	test   %ebx,%ebx
  401c18:	74 08                	je     401c22 <notify_server+0x126>
  401c1a:	be d1 31 40 00       	mov    $0x4031d1,%esi
  401c1f:	90                   	nop
  401c20:	eb 05                	jmp    401c27 <notify_server+0x12b>
  401c22:	be d6 31 40 00       	mov    $0x4031d6,%esi
  401c27:	bf 58 33 40 00       	mov    $0x403358,%edi
  401c2c:	b8 00 00 00 00       	mov    $0x0,%eax
  401c31:	e8 4a f0 ff ff       	callq  400c80 <printf@plt>
  401c36:	48 8b 35 23 35 20 00 	mov    0x203523(%rip),%rsi        # 605160 <user_id>
  401c3d:	bf 14 32 40 00       	mov    $0x403214,%edi
  401c42:	b8 00 00 00 00       	mov    $0x0,%eax
  401c47:	e8 34 f0 ff ff       	callq  400c80 <printf@plt>
  401c4c:	48 8b 35 25 35 20 00 	mov    0x203525(%rip),%rsi        # 605178 <course>
  401c53:	bf 21 32 40 00       	mov    $0x403221,%edi
  401c58:	b8 00 00 00 00       	mov    $0x0,%eax
  401c5d:	e8 1e f0 ff ff       	callq  400c80 <printf@plt>
  401c62:	48 8b 35 07 35 20 00 	mov    0x203507(%rip),%rsi        # 605170 <lab>
  401c69:	bf 2d 32 40 00       	mov    $0x40322d,%edi
  401c6e:	b8 00 00 00 00       	mov    $0x0,%eax
  401c73:	e8 08 f0 ff ff       	callq  400c80 <printf@plt>
  401c78:	48 8d b4 24 10 20 00 	lea    0x2010(%rsp),%rsi
  401c7f:	00 
  401c80:	bf 36 32 40 00       	mov    $0x403236,%edi
  401c85:	b8 00 00 00 00       	mov    $0x0,%eax
  401c8a:	e8 f1 ef ff ff       	callq  400c80 <printf@plt>
  401c8f:	48 81 c4 10 40 00 00 	add    $0x4010,%rsp
  401c96:	5b                   	pop    %rbx
  401c97:	f3 c3                	repz retq 

0000000000401c99 <validate>:
  401c99:	53                   	push   %rbx
  401c9a:	89 fb                	mov    %edi,%ebx
  401c9c:	83 3d 65 38 20 00 00 	cmpl   $0x0,0x203865(%rip)        # 605508 <is_checker>
  401ca3:	74 60                	je     401d05 <validate+0x6c>
  401ca5:	39 3d 51 38 20 00    	cmp    %edi,0x203851(%rip)        # 6054fc <vlevel>
  401cab:	74 14                	je     401cc1 <validate+0x28>
  401cad:	bf 42 32 40 00       	mov    $0x403242,%edi
  401cb2:	e8 99 ef ff ff       	callq  400c50 <puts@plt>
  401cb7:	b8 00 00 00 00       	mov    $0x0,%eax
  401cbc:	e8 ba fd ff ff       	callq  401a7b <check_fail>
  401cc1:	8b 35 31 38 20 00    	mov    0x203831(%rip),%esi        # 6054f8 <check_level>
  401cc7:	39 fe                	cmp    %edi,%esi
  401cc9:	74 1b                	je     401ce6 <validate+0x4d>
  401ccb:	89 fa                	mov    %edi,%edx
  401ccd:	bf 80 33 40 00       	mov    $0x403380,%edi
  401cd2:	b8 00 00 00 00       	mov    $0x0,%eax
  401cd7:	e8 a4 ef ff ff       	callq  400c80 <printf@plt>
  401cdc:	b8 00 00 00 00       	mov    $0x0,%eax
  401ce1:	e8 95 fd ff ff       	callq  401a7b <check_fail>
  401ce6:	0f be 35 3b 44 20 00 	movsbl 0x20443b(%rip),%esi        # 606128 <target_prefix>
  401ced:	b9 20 55 60 00       	mov    $0x605520,%ecx
  401cf2:	89 fa                	mov    %edi,%edx
  401cf4:	bf 60 32 40 00       	mov    $0x403260,%edi
  401cf9:	b8 00 00 00 00       	mov    $0x0,%eax
  401cfe:	e8 7d ef ff ff       	callq  400c80 <printf@plt>
  401d03:	eb 44                	jmp    401d49 <validate+0xb0>
  401d05:	39 3d f1 37 20 00    	cmp    %edi,0x2037f1(%rip)        # 6054fc <vlevel>
  401d0b:	74 18                	je     401d25 <validate+0x8c>
  401d0d:	bf 42 32 40 00       	mov    $0x403242,%edi
  401d12:	e8 39 ef ff ff       	callq  400c50 <puts@plt>
  401d17:	89 de                	mov    %ebx,%esi
  401d19:	bf 00 00 00 00       	mov    $0x0,%edi
  401d1e:	e8 d9 fd ff ff       	callq  401afc <notify_server>
  401d23:	eb 24                	jmp    401d49 <validate+0xb0>
  401d25:	0f be 15 fc 43 20 00 	movsbl 0x2043fc(%rip),%edx        # 606128 <target_prefix>
  401d2c:	89 fe                	mov    %edi,%esi
  401d2e:	bf a8 33 40 00       	mov    $0x4033a8,%edi
  401d33:	b8 00 00 00 00       	mov    $0x0,%eax
  401d38:	e8 43 ef ff ff       	callq  400c80 <printf@plt>
  401d3d:	89 de                	mov    %ebx,%esi
  401d3f:	bf 01 00 00 00       	mov    $0x1,%edi
  401d44:	e8 b3 fd ff ff       	callq  401afc <notify_server>
  401d49:	5b                   	pop    %rbx
  401d4a:	c3                   	retq   

0000000000401d4b <fail>:
  401d4b:	48 83 ec 08          	sub    $0x8,%rsp
  401d4f:	83 3d b2 37 20 00 00 	cmpl   $0x0,0x2037b2(%rip)        # 605508 <is_checker>
  401d56:	74 0a                	je     401d62 <fail+0x17>
  401d58:	b8 00 00 00 00       	mov    $0x0,%eax
  401d5d:	e8 19 fd ff ff       	callq  401a7b <check_fail>
  401d62:	89 fe                	mov    %edi,%esi
  401d64:	bf 00 00 00 00       	mov    $0x0,%edi
  401d69:	e8 8e fd ff ff       	callq  401afc <notify_server>
  401d6e:	48 83 c4 08          	add    $0x8,%rsp
  401d72:	c3                   	retq   

0000000000401d73 <bushandler>:
  401d73:	48 83 ec 08          	sub    $0x8,%rsp
  401d77:	83 3d 8a 37 20 00 00 	cmpl   $0x0,0x20378a(%rip)        # 605508 <is_checker>
  401d7e:	74 14                	je     401d94 <bushandler+0x21>
  401d80:	bf 75 32 40 00       	mov    $0x403275,%edi
  401d85:	e8 c6 ee ff ff       	callq  400c50 <puts@plt>
  401d8a:	b8 00 00 00 00       	mov    $0x0,%eax
  401d8f:	e8 e7 fc ff ff       	callq  401a7b <check_fail>
  401d94:	bf e0 33 40 00       	mov    $0x4033e0,%edi
  401d99:	e8 b2 ee ff ff       	callq  400c50 <puts@plt>
  401d9e:	bf 7f 32 40 00       	mov    $0x40327f,%edi
  401da3:	e8 a8 ee ff ff       	callq  400c50 <puts@plt>
  401da8:	be 00 00 00 00       	mov    $0x0,%esi
  401dad:	bf 00 00 00 00       	mov    $0x0,%edi
  401db2:	e8 45 fd ff ff       	callq  401afc <notify_server>
  401db7:	bf 01 00 00 00       	mov    $0x1,%edi
  401dbc:	e8 2f f0 ff ff       	callq  400df0 <exit@plt>

0000000000401dc1 <seghandler>:
  401dc1:	48 83 ec 08          	sub    $0x8,%rsp
  401dc5:	83 3d 3c 37 20 00 00 	cmpl   $0x0,0x20373c(%rip)        # 605508 <is_checker>
  401dcc:	74 14                	je     401de2 <seghandler+0x21>
  401dce:	bf 95 32 40 00       	mov    $0x403295,%edi
  401dd3:	e8 78 ee ff ff       	callq  400c50 <puts@plt>
  401dd8:	b8 00 00 00 00       	mov    $0x0,%eax
  401ddd:	e8 99 fc ff ff       	callq  401a7b <check_fail>
  401de2:	bf 00 34 40 00       	mov    $0x403400,%edi
  401de7:	e8 64 ee ff ff       	callq  400c50 <puts@plt>
  401dec:	bf 7f 32 40 00       	mov    $0x40327f,%edi
  401df1:	e8 5a ee ff ff       	callq  400c50 <puts@plt>
  401df6:	be 00 00 00 00       	mov    $0x0,%esi
  401dfb:	bf 00 00 00 00       	mov    $0x0,%edi
  401e00:	e8 f7 fc ff ff       	callq  401afc <notify_server>
  401e05:	bf 01 00 00 00       	mov    $0x1,%edi
  401e0a:	e8 e1 ef ff ff       	callq  400df0 <exit@plt>

0000000000401e0f <illegalhandler>:
  401e0f:	48 83 ec 08          	sub    $0x8,%rsp
  401e13:	83 3d ee 36 20 00 00 	cmpl   $0x0,0x2036ee(%rip)        # 605508 <is_checker>
  401e1a:	74 14                	je     401e30 <illegalhandler+0x21>
  401e1c:	bf a8 32 40 00       	mov    $0x4032a8,%edi
  401e21:	e8 2a ee ff ff       	callq  400c50 <puts@plt>
  401e26:	b8 00 00 00 00       	mov    $0x0,%eax
  401e2b:	e8 4b fc ff ff       	callq  401a7b <check_fail>
  401e30:	bf 28 34 40 00       	mov    $0x403428,%edi
  401e35:	e8 16 ee ff ff       	callq  400c50 <puts@plt>
  401e3a:	bf 7f 32 40 00       	mov    $0x40327f,%edi
  401e3f:	e8 0c ee ff ff       	callq  400c50 <puts@plt>
  401e44:	be 00 00 00 00       	mov    $0x0,%esi
  401e49:	bf 00 00 00 00       	mov    $0x0,%edi
  401e4e:	e8 a9 fc ff ff       	callq  401afc <notify_server>
  401e53:	bf 01 00 00 00       	mov    $0x1,%edi
  401e58:	e8 93 ef ff ff       	callq  400df0 <exit@plt>

0000000000401e5d <sigalrmhandler>:
  401e5d:	48 83 ec 08          	sub    $0x8,%rsp
  401e61:	83 3d a0 36 20 00 00 	cmpl   $0x0,0x2036a0(%rip)        # 605508 <is_checker>
  401e68:	74 14                	je     401e7e <sigalrmhandler+0x21>
  401e6a:	bf bc 32 40 00       	mov    $0x4032bc,%edi
  401e6f:	e8 dc ed ff ff       	callq  400c50 <puts@plt>
  401e74:	b8 00 00 00 00       	mov    $0x0,%eax
  401e79:	e8 fd fb ff ff       	callq  401a7b <check_fail>
  401e7e:	be 05 00 00 00       	mov    $0x5,%esi
  401e83:	bf 58 34 40 00       	mov    $0x403458,%edi
  401e88:	b8 00 00 00 00       	mov    $0x0,%eax
  401e8d:	e8 ee ed ff ff       	callq  400c80 <printf@plt>
  401e92:	be 00 00 00 00       	mov    $0x0,%esi
  401e97:	bf 00 00 00 00       	mov    $0x0,%edi
  401e9c:	e8 5b fc ff ff       	callq  401afc <notify_server>
  401ea1:	bf 01 00 00 00       	mov    $0x1,%edi
  401ea6:	e8 45 ef ff ff       	callq  400df0 <exit@plt>

0000000000401eab <launch>:
  401eab:	55                   	push   %rbp
  401eac:	48 89 e5             	mov    %rsp,%rbp
  401eaf:	48 89 fa             	mov    %rdi,%rdx
  401eb2:	48 8d 47 1e          	lea    0x1e(%rdi),%rax
  401eb6:	48 83 e0 f0          	and    $0xfffffffffffffff0,%rax
  401eba:	48 29 c4             	sub    %rax,%rsp
  401ebd:	48 8d 7c 24 0f       	lea    0xf(%rsp),%rdi
  401ec2:	48 83 e7 f0          	and    $0xfffffffffffffff0,%rdi
  401ec6:	be f4 00 00 00       	mov    $0xf4,%esi
  401ecb:	e8 c0 ed ff ff       	callq  400c90 <memset@plt>
  401ed0:	48 8b 05 e9 35 20 00 	mov    0x2035e9(%rip),%rax        # 6054c0 <stdin@@GLIBC_2.2.5>
  401ed7:	48 39 05 12 36 20 00 	cmp    %rax,0x203612(%rip)        # 6054f0 <infile>
  401ede:	75 0f                	jne    401eef <launch+0x44>
  401ee0:	bf c4 32 40 00       	mov    $0x4032c4,%edi
  401ee5:	b8 00 00 00 00       	mov    $0x0,%eax
  401eea:	e8 91 ed ff ff       	callq  400c80 <printf@plt>
  401eef:	c7 05 03 36 20 00 00 	movl   $0x0,0x203603(%rip)        # 6054fc <vlevel>
  401ef6:	00 00 00 
  401ef9:	b8 00 00 00 00       	mov    $0x0,%eax
  401efe:	e8 c3 f9 ff ff       	callq  4018c6 <test>
  401f03:	83 3d fe 35 20 00 00 	cmpl   $0x0,0x2035fe(%rip)        # 605508 <is_checker>
  401f0a:	74 14                	je     401f20 <launch+0x75>
  401f0c:	bf d1 32 40 00       	mov    $0x4032d1,%edi
  401f11:	e8 3a ed ff ff       	callq  400c50 <puts@plt>
  401f16:	b8 00 00 00 00       	mov    $0x0,%eax
  401f1b:	e8 5b fb ff ff       	callq  401a7b <check_fail>
  401f20:	bf dc 32 40 00       	mov    $0x4032dc,%edi
  401f25:	e8 26 ed ff ff       	callq  400c50 <puts@plt>
  401f2a:	c9                   	leaveq 
  401f2b:	c3                   	retq   

0000000000401f2c <stable_launch>:
  401f2c:	53                   	push   %rbx
  401f2d:	48 89 3d b4 35 20 00 	mov    %rdi,0x2035b4(%rip)        # 6054e8 <global_offset>
  401f34:	41 b9 00 00 00 00    	mov    $0x0,%r9d
  401f3a:	41 b8 00 00 00 00    	mov    $0x0,%r8d
  401f40:	b9 32 01 00 00       	mov    $0x132,%ecx
  401f45:	ba 07 00 00 00       	mov    $0x7,%edx
  401f4a:	be 00 00 10 00       	mov    $0x100000,%esi
  401f4f:	bf 00 60 58 55       	mov    $0x55586000,%edi
  401f54:	e8 17 ed ff ff       	callq  400c70 <mmap@plt>
  401f59:	48 89 c3             	mov    %rax,%rbx
  401f5c:	48 3d 00 60 58 55    	cmp    $0x55586000,%rax
  401f62:	74 32                	je     401f96 <stable_launch+0x6a>
  401f64:	be 00 00 10 00       	mov    $0x100000,%esi
  401f69:	48 89 c7             	mov    %rax,%rdi
  401f6c:	e8 0f ee ff ff       	callq  400d80 <munmap@plt>
  401f71:	ba 00 60 58 55       	mov    $0x55586000,%edx
  401f76:	be 90 34 40 00       	mov    $0x403490,%esi
  401f7b:	48 8b 3d 4e 35 20 00 	mov    0x20354e(%rip),%rdi        # 6054d0 <stderr@@GLIBC_2.2.5>
  401f82:	b8 00 00 00 00       	mov    $0x0,%eax
  401f87:	e8 74 ed ff ff       	callq  400d00 <fprintf@plt>
  401f8c:	bf 01 00 00 00       	mov    $0x1,%edi
  401f91:	e8 5a ee ff ff       	callq  400df0 <exit@plt>
  401f96:	48 8d 90 f8 ff 0f 00 	lea    0xffff8(%rax),%rdx
  401f9d:	48 89 15 8c 41 20 00 	mov    %rdx,0x20418c(%rip)        # 606130 <stack_top>
  401fa4:	48 89 e0             	mov    %rsp,%rax
  401fa7:	48 89 d4             	mov    %rdx,%rsp
  401faa:	48 89 c2             	mov    %rax,%rdx
  401fad:	48 89 15 2c 35 20 00 	mov    %rdx,0x20352c(%rip)        # 6054e0 <global_save_stack>
  401fb4:	48 8b 3d 2d 35 20 00 	mov    0x20352d(%rip),%rdi        # 6054e8 <global_offset>
  401fbb:	e8 eb fe ff ff       	callq  401eab <launch>
  401fc0:	48 8b 05 19 35 20 00 	mov    0x203519(%rip),%rax        # 6054e0 <global_save_stack>
  401fc7:	48 89 c4             	mov    %rax,%rsp
  401fca:	be 00 00 10 00       	mov    $0x100000,%esi
  401fcf:	48 89 df             	mov    %rbx,%rdi
  401fd2:	e8 a9 ed ff ff       	callq  400d80 <munmap@plt>
  401fd7:	5b                   	pop    %rbx
  401fd8:	c3                   	retq   
  401fd9:	0f 1f 80 00 00 00 00 	nopl   0x0(%rax)

0000000000401fe0 <rio_readinitb>:
  401fe0:	89 37                	mov    %esi,(%rdi)
  401fe2:	c7 47 04 00 00 00 00 	movl   $0x0,0x4(%rdi)
  401fe9:	48 8d 47 10          	lea    0x10(%rdi),%rax
  401fed:	48 89 47 08          	mov    %rax,0x8(%rdi)
  401ff1:	c3                   	retq   

0000000000401ff2 <sigalrm_handler>:
  401ff2:	48 83 ec 08          	sub    $0x8,%rsp
  401ff6:	ba 00 00 00 00       	mov    $0x0,%edx
  401ffb:	be d0 34 40 00       	mov    $0x4034d0,%esi
  402000:	48 8b 3d c9 34 20 00 	mov    0x2034c9(%rip),%rdi        # 6054d0 <stderr@@GLIBC_2.2.5>
  402007:	b8 00 00 00 00       	mov    $0x0,%eax
  40200c:	e8 ef ec ff ff       	callq  400d00 <fprintf@plt>
  402011:	bf 01 00 00 00       	mov    $0x1,%edi
  402016:	e8 d5 ed ff ff       	callq  400df0 <exit@plt>

000000000040201b <urlencode>:
  40201b:	41 54                	push   %r12
  40201d:	55                   	push   %rbp
  40201e:	53                   	push   %rbx
  40201f:	48 83 ec 10          	sub    $0x10,%rsp
  402023:	48 89 fb             	mov    %rdi,%rbx
  402026:	48 89 f5             	mov    %rsi,%rbp
  402029:	b8 00 00 00 00       	mov    $0x0,%eax
  40202e:	48 c7 c1 ff ff ff ff 	mov    $0xffffffffffffffff,%rcx
  402035:	f2 ae                	repnz scas %es:(%rdi),%al
  402037:	48 f7 d1             	not    %rcx
  40203a:	8d 41 ff             	lea    -0x1(%rcx),%eax
  40203d:	e9 93 00 00 00       	jmpq   4020d5 <urlencode+0xba>
  402042:	0f b6 13             	movzbl (%rbx),%edx
  402045:	80 fa 2a             	cmp    $0x2a,%dl
  402048:	0f 94 c1             	sete   %cl
  40204b:	80 fa 2d             	cmp    $0x2d,%dl
  40204e:	0f 94 c0             	sete   %al
  402051:	08 c1                	or     %al,%cl
  402053:	75 1f                	jne    402074 <urlencode+0x59>
  402055:	80 fa 2e             	cmp    $0x2e,%dl
  402058:	74 1a                	je     402074 <urlencode+0x59>
  40205a:	80 fa 5f             	cmp    $0x5f,%dl
  40205d:	74 15                	je     402074 <urlencode+0x59>
  40205f:	8d 42 d0             	lea    -0x30(%rdx),%eax
  402062:	3c 09                	cmp    $0x9,%al
  402064:	76 0e                	jbe    402074 <urlencode+0x59>
  402066:	8d 42 bf             	lea    -0x41(%rdx),%eax
  402069:	3c 19                	cmp    $0x19,%al
  40206b:	76 07                	jbe    402074 <urlencode+0x59>
  40206d:	8d 42 9f             	lea    -0x61(%rdx),%eax
  402070:	3c 19                	cmp    $0x19,%al
  402072:	77 09                	ja     40207d <urlencode+0x62>
  402074:	88 55 00             	mov    %dl,0x0(%rbp)
  402077:	48 8d 6d 01          	lea    0x1(%rbp),%rbp
  40207b:	eb 51                	jmp    4020ce <urlencode+0xb3>
  40207d:	80 fa 20             	cmp    $0x20,%dl
  402080:	75 0a                	jne    40208c <urlencode+0x71>
  402082:	c6 45 00 2b          	movb   $0x2b,0x0(%rbp)
  402086:	48 8d 6d 01          	lea    0x1(%rbp),%rbp
  40208a:	eb 42                	jmp    4020ce <urlencode+0xb3>
  40208c:	8d 42 e0             	lea    -0x20(%rdx),%eax
  40208f:	3c 5f                	cmp    $0x5f,%al
  402091:	0f 96 c1             	setbe  %cl
  402094:	80 fa 09             	cmp    $0x9,%dl
  402097:	0f 94 c0             	sete   %al
  40209a:	08 c1                	or     %al,%cl
  40209c:	74 45                	je     4020e3 <urlencode+0xc8>
  40209e:	0f b6 d2             	movzbl %dl,%edx
  4020a1:	be 68 35 40 00       	mov    $0x403568,%esi
  4020a6:	48 89 e7             	mov    %rsp,%rdi
  4020a9:	b8 00 00 00 00       	mov    $0x0,%eax
  4020ae:	e8 2d ed ff ff       	callq  400de0 <sprintf@plt>
  4020b3:	0f b6 04 24          	movzbl (%rsp),%eax
  4020b7:	88 45 00             	mov    %al,0x0(%rbp)
  4020ba:	0f b6 44 24 01       	movzbl 0x1(%rsp),%eax
  4020bf:	88 45 01             	mov    %al,0x1(%rbp)
  4020c2:	0f b6 44 24 02       	movzbl 0x2(%rsp),%eax
  4020c7:	88 45 02             	mov    %al,0x2(%rbp)
  4020ca:	48 8d 6d 03          	lea    0x3(%rbp),%rbp
  4020ce:	48 83 c3 01          	add    $0x1,%rbx
  4020d2:	44 89 e0             	mov    %r12d,%eax
  4020d5:	44 8d 60 ff          	lea    -0x1(%rax),%r12d
  4020d9:	85 c0                	test   %eax,%eax
  4020db:	0f 85 61 ff ff ff    	jne    402042 <urlencode+0x27>
  4020e1:	eb 05                	jmp    4020e8 <urlencode+0xcd>
  4020e3:	b8 ff ff ff ff       	mov    $0xffffffff,%eax
  4020e8:	48 83 c4 10          	add    $0x10,%rsp
  4020ec:	5b                   	pop    %rbx
  4020ed:	5d                   	pop    %rbp
  4020ee:	41 5c                	pop    %r12
  4020f0:	c3                   	retq   

00000000004020f1 <rio_writen>:
  4020f1:	41 55                	push   %r13
  4020f3:	41 54                	push   %r12
  4020f5:	55                   	push   %rbp
  4020f6:	53                   	push   %rbx
  4020f7:	48 83 ec 08          	sub    $0x8,%rsp
  4020fb:	41 89 fc             	mov    %edi,%r12d
  4020fe:	48 89 f5             	mov    %rsi,%rbp
  402101:	49 89 d5             	mov    %rdx,%r13
  402104:	48 89 d3             	mov    %rdx,%rbx
  402107:	eb 28                	jmp    402131 <rio_writen+0x40>
  402109:	48 89 da             	mov    %rbx,%rdx
  40210c:	48 89 ee             	mov    %rbp,%rsi
  40210f:	44 89 e7             	mov    %r12d,%edi
  402112:	e8 49 eb ff ff       	callq  400c60 <write@plt>
  402117:	48 85 c0             	test   %rax,%rax
  40211a:	7f 0f                	jg     40212b <rio_writen+0x3a>
  40211c:	e8 ef ea ff ff       	callq  400c10 <__errno_location@plt>
  402121:	83 38 04             	cmpl   $0x4,(%rax)
  402124:	75 15                	jne    40213b <rio_writen+0x4a>
  402126:	b8 00 00 00 00       	mov    $0x0,%eax
  40212b:	48 29 c3             	sub    %rax,%rbx
  40212e:	48 01 c5             	add    %rax,%rbp
  402131:	48 85 db             	test   %rbx,%rbx
  402134:	75 d3                	jne    402109 <rio_writen+0x18>
  402136:	4c 89 e8             	mov    %r13,%rax
  402139:	eb 07                	jmp    402142 <rio_writen+0x51>
  40213b:	48 c7 c0 ff ff ff ff 	mov    $0xffffffffffffffff,%rax
  402142:	48 83 c4 08          	add    $0x8,%rsp
  402146:	5b                   	pop    %rbx
  402147:	5d                   	pop    %rbp
  402148:	41 5c                	pop    %r12
  40214a:	41 5d                	pop    %r13
  40214c:	c3                   	retq   

000000000040214d <rio_read>:
  40214d:	41 56                	push   %r14
  40214f:	41 55                	push   %r13
  402151:	41 54                	push   %r12
  402153:	55                   	push   %rbp
  402154:	53                   	push   %rbx
  402155:	48 89 fb             	mov    %rdi,%rbx
  402158:	49 89 f6             	mov    %rsi,%r14
  40215b:	49 89 d5             	mov    %rdx,%r13
  40215e:	4c 8d 67 10          	lea    0x10(%rdi),%r12
  402162:	eb 2a                	jmp    40218e <rio_read+0x41>
  402164:	ba 00 20 00 00       	mov    $0x2000,%edx
  402169:	4c 89 e6             	mov    %r12,%rsi
  40216c:	8b 3b                	mov    (%rbx),%edi
  40216e:	e8 4d eb ff ff       	callq  400cc0 <read@plt>
  402173:	89 43 04             	mov    %eax,0x4(%rbx)
  402176:	85 c0                	test   %eax,%eax
  402178:	79 0c                	jns    402186 <rio_read+0x39>
  40217a:	e8 91 ea ff ff       	callq  400c10 <__errno_location@plt>
  40217f:	83 38 04             	cmpl   $0x4,(%rax)
  402182:	74 0a                	je     40218e <rio_read+0x41>
  402184:	eb 37                	jmp    4021bd <rio_read+0x70>
  402186:	85 c0                	test   %eax,%eax
  402188:	74 3c                	je     4021c6 <rio_read+0x79>
  40218a:	4c 89 63 08          	mov    %r12,0x8(%rbx)
  40218e:	8b 6b 04             	mov    0x4(%rbx),%ebp
  402191:	85 ed                	test   %ebp,%ebp
  402193:	7e cf                	jle    402164 <rio_read+0x17>
  402195:	89 e8                	mov    %ebp,%eax
  402197:	4c 39 e8             	cmp    %r13,%rax
  40219a:	72 03                	jb     40219f <rio_read+0x52>
  40219c:	44 89 ed             	mov    %r13d,%ebp
  40219f:	4c 63 e5             	movslq %ebp,%r12
  4021a2:	48 8b 73 08          	mov    0x8(%rbx),%rsi
  4021a6:	4c 89 e2             	mov    %r12,%rdx
  4021a9:	4c 89 f7             	mov    %r14,%rdi
  4021ac:	e8 7f eb ff ff       	callq  400d30 <memcpy@plt>
  4021b1:	4c 01 63 08          	add    %r12,0x8(%rbx)
  4021b5:	29 6b 04             	sub    %ebp,0x4(%rbx)
  4021b8:	4c 89 e0             	mov    %r12,%rax
  4021bb:	eb 0e                	jmp    4021cb <rio_read+0x7e>
  4021bd:	48 c7 c0 ff ff ff ff 	mov    $0xffffffffffffffff,%rax
  4021c4:	eb 05                	jmp    4021cb <rio_read+0x7e>
  4021c6:	b8 00 00 00 00       	mov    $0x0,%eax
  4021cb:	5b                   	pop    %rbx
  4021cc:	5d                   	pop    %rbp
  4021cd:	41 5c                	pop    %r12
  4021cf:	41 5d                	pop    %r13
  4021d1:	41 5e                	pop    %r14
  4021d3:	c3                   	retq   

00000000004021d4 <rio_readlineb>:
  4021d4:	41 55                	push   %r13
  4021d6:	41 54                	push   %r12
  4021d8:	55                   	push   %rbp
  4021d9:	53                   	push   %rbx
  4021da:	48 83 ec 18          	sub    $0x18,%rsp
  4021de:	49 89 fd             	mov    %rdi,%r13
  4021e1:	48 89 f5             	mov    %rsi,%rbp
  4021e4:	49 89 d4             	mov    %rdx,%r12
  4021e7:	bb 01 00 00 00       	mov    $0x1,%ebx
  4021ec:	eb 3d                	jmp    40222b <rio_readlineb+0x57>
  4021ee:	ba 01 00 00 00       	mov    $0x1,%edx
  4021f3:	48 8d 74 24 0f       	lea    0xf(%rsp),%rsi
  4021f8:	4c 89 ef             	mov    %r13,%rdi
  4021fb:	e8 4d ff ff ff       	callq  40214d <rio_read>
  402200:	83 f8 01             	cmp    $0x1,%eax
  402203:	75 12                	jne    402217 <rio_readlineb+0x43>
  402205:	48 8d 55 01          	lea    0x1(%rbp),%rdx
  402209:	0f b6 44 24 0f       	movzbl 0xf(%rsp),%eax
  40220e:	88 45 00             	mov    %al,0x0(%rbp)
  402211:	3c 0a                	cmp    $0xa,%al
  402213:	75 0f                	jne    402224 <rio_readlineb+0x50>
  402215:	eb 1b                	jmp    402232 <rio_readlineb+0x5e>
  402217:	85 c0                	test   %eax,%eax
  402219:	75 23                	jne    40223e <rio_readlineb+0x6a>
  40221b:	48 83 fb 01          	cmp    $0x1,%rbx
  40221f:	90                   	nop
  402220:	75 13                	jne    402235 <rio_readlineb+0x61>
  402222:	eb 23                	jmp    402247 <rio_readlineb+0x73>
  402224:	48 83 c3 01          	add    $0x1,%rbx
  402228:	48 89 d5             	mov    %rdx,%rbp
  40222b:	4c 39 e3             	cmp    %r12,%rbx
  40222e:	72 be                	jb     4021ee <rio_readlineb+0x1a>
  402230:	eb 03                	jmp    402235 <rio_readlineb+0x61>
  402232:	48 89 d5             	mov    %rdx,%rbp
  402235:	c6 45 00 00          	movb   $0x0,0x0(%rbp)
  402239:	48 89 d8             	mov    %rbx,%rax
  40223c:	eb 0e                	jmp    40224c <rio_readlineb+0x78>
  40223e:	48 c7 c0 ff ff ff ff 	mov    $0xffffffffffffffff,%rax
  402245:	eb 05                	jmp    40224c <rio_readlineb+0x78>
  402247:	b8 00 00 00 00       	mov    $0x0,%eax
  40224c:	48 83 c4 18          	add    $0x18,%rsp
  402250:	5b                   	pop    %rbx
  402251:	5d                   	pop    %rbp
  402252:	41 5c                	pop    %r12
  402254:	41 5d                	pop    %r13
  402256:	c3                   	retq   

0000000000402257 <submitr>:
  402257:	41 57                	push   %r15
  402259:	41 56                	push   %r14
  40225b:	41 55                	push   %r13
  40225d:	41 54                	push   %r12
  40225f:	55                   	push   %rbp
  402260:	53                   	push   %rbx
  402261:	48 81 ec 48 a0 00 00 	sub    $0xa048,%rsp
  402268:	49 89 fc             	mov    %rdi,%r12
  40226b:	89 74 24 04          	mov    %esi,0x4(%rsp)
  40226f:	49 89 d7             	mov    %rdx,%r15
  402272:	49 89 ce             	mov    %rcx,%r14
  402275:	4c 89 44 24 08       	mov    %r8,0x8(%rsp)
  40227a:	4d 89 cd             	mov    %r9,%r13
  40227d:	48 8b 9c 24 80 a0 00 	mov    0xa080(%rsp),%rbx
  402284:	00 
  402285:	c7 84 24 1c 20 00 00 	movl   $0x0,0x201c(%rsp)
  40228c:	00 00 00 00 
  402290:	ba 00 00 00 00       	mov    $0x0,%edx
  402295:	be 01 00 00 00       	mov    $0x1,%esi
  40229a:	bf 02 00 00 00       	mov    $0x2,%edi
  40229f:	e8 6c eb ff ff       	callq  400e10 <socket@plt>
  4022a4:	89 c5                	mov    %eax,%ebp
  4022a6:	85 c0                	test   %eax,%eax
  4022a8:	79 4e                	jns    4022f8 <submitr+0xa1>
  4022aa:	48 b8 45 72 72 6f 72 	movabs $0x43203a726f727245,%rax
  4022b1:	3a 20 43 
  4022b4:	48 89 03             	mov    %rax,(%rbx)
  4022b7:	48 b8 6c 69 65 6e 74 	movabs $0x6e7520746e65696c,%rax
  4022be:	20 75 6e 
  4022c1:	48 89 43 08          	mov    %rax,0x8(%rbx)
  4022c5:	48 b8 61 62 6c 65 20 	movabs $0x206f7420656c6261,%rax
  4022cc:	74 6f 20 
  4022cf:	48 89 43 10          	mov    %rax,0x10(%rbx)
  4022d3:	48 b8 63 72 65 61 74 	movabs $0x7320657461657263,%rax
  4022da:	65 20 73 
  4022dd:	48 89 43 18          	mov    %rax,0x18(%rbx)
  4022e1:	c7 43 20 6f 63 6b 65 	movl   $0x656b636f,0x20(%rbx)
  4022e8:	66 c7 43 24 74 00    	movw   $0x74,0x24(%rbx)
  4022ee:	b8 ff ff ff ff       	mov    $0xffffffff,%eax
  4022f3:	e9 68 06 00 00       	jmpq   402960 <submitr+0x709>
  4022f8:	4c 89 e7             	mov    %r12,%rdi
  4022fb:	e8 f0 e9 ff ff       	callq  400cf0 <gethostbyname@plt>
  402300:	48 85 c0             	test   %rax,%rax
  402303:	75 67                	jne    40236c <submitr+0x115>
  402305:	48 b8 45 72 72 6f 72 	movabs $0x44203a726f727245,%rax
  40230c:	3a 20 44 
  40230f:	48 89 03             	mov    %rax,(%rbx)
  402312:	48 b8 4e 53 20 69 73 	movabs $0x6e7520736920534e,%rax
  402319:	20 75 6e 
  40231c:	48 89 43 08          	mov    %rax,0x8(%rbx)
  402320:	48 b8 61 62 6c 65 20 	movabs $0x206f7420656c6261,%rax
  402327:	74 6f 20 
  40232a:	48 89 43 10          	mov    %rax,0x10(%rbx)
  40232e:	48 b8 72 65 73 6f 6c 	movabs $0x2065766c6f736572,%rax
  402335:	76 65 20 
  402338:	48 89 43 18          	mov    %rax,0x18(%rbx)
  40233c:	48 b8 73 65 72 76 65 	movabs $0x6120726576726573,%rax
  402343:	72 20 61 
  402346:	48 89 43 20          	mov    %rax,0x20(%rbx)
  40234a:	c7 43 28 64 64 72 65 	movl   $0x65726464,0x28(%rbx)
  402351:	66 c7 43 2c 73 73    	movw   $0x7373,0x2c(%rbx)
  402357:	c6 43 2e 00          	movb   $0x0,0x2e(%rbx)
  40235b:	89 ef                	mov    %ebp,%edi
  40235d:	e8 4e e9 ff ff       	callq  400cb0 <close@plt>
  402362:	b8 ff ff ff ff       	mov    $0xffffffff,%eax
  402367:	e9 f4 05 00 00       	jmpq   402960 <submitr+0x709>
  40236c:	48 c7 84 24 30 a0 00 	movq   $0x0,0xa030(%rsp)
  402373:	00 00 00 00 00 
  402378:	48 c7 84 24 38 a0 00 	movq   $0x0,0xa038(%rsp)
  40237f:	00 00 00 00 00 
  402384:	66 c7 84 24 30 a0 00 	movw   $0x2,0xa030(%rsp)
  40238b:	00 02 00 
  40238e:	48 8b 48 18          	mov    0x18(%rax),%rcx
  402392:	48 63 50 14          	movslq 0x14(%rax),%rdx
  402396:	48 8d b4 24 34 a0 00 	lea    0xa034(%rsp),%rsi
  40239d:	00 
  40239e:	48 8b 39             	mov    (%rcx),%rdi
  4023a1:	e8 ea e9 ff ff       	callq  400d90 <bcopy@plt>
  4023a6:	0f b7 44 24 04       	movzwl 0x4(%rsp),%eax
  4023ab:	66 c1 c8 08          	ror    $0x8,%ax
  4023af:	66 89 84 24 32 a0 00 	mov    %ax,0xa032(%rsp)
  4023b6:	00 
  4023b7:	ba 10 00 00 00       	mov    $0x10,%edx
  4023bc:	48 8d b4 24 30 a0 00 	lea    0xa030(%rsp),%rsi
  4023c3:	00 
  4023c4:	89 ef                	mov    %ebp,%edi
  4023c6:	e8 35 ea ff ff       	callq  400e00 <connect@plt>
  4023cb:	85 c0                	test   %eax,%eax
  4023cd:	79 59                	jns    402428 <submitr+0x1d1>
  4023cf:	48 b8 45 72 72 6f 72 	movabs $0x55203a726f727245,%rax
  4023d6:	3a 20 55 
  4023d9:	48 89 03             	mov    %rax,(%rbx)
  4023dc:	48 b8 6e 61 62 6c 65 	movabs $0x6f7420656c62616e,%rax
  4023e3:	20 74 6f 
  4023e6:	48 89 43 08          	mov    %rax,0x8(%rbx)
  4023ea:	48 b8 20 63 6f 6e 6e 	movabs $0x7463656e6e6f6320,%rax
  4023f1:	65 63 74 
  4023f4:	48 89 43 10          	mov    %rax,0x10(%rbx)
  4023f8:	48 b8 20 74 6f 20 74 	movabs $0x20656874206f7420,%rax
  4023ff:	68 65 20 
  402402:	48 89 43 18          	mov    %rax,0x18(%rbx)
  402406:	c7 43 20 73 65 72 76 	movl   $0x76726573,0x20(%rbx)
  40240d:	66 c7 43 24 65 72    	movw   $0x7265,0x24(%rbx)
  402413:	c6 43 26 00          	movb   $0x0,0x26(%rbx)
  402417:	89 ef                	mov    %ebp,%edi
  402419:	e8 92 e8 ff ff       	callq  400cb0 <close@plt>
  40241e:	b8 ff ff ff ff       	mov    $0xffffffff,%eax
  402423:	e9 38 05 00 00       	jmpq   402960 <submitr+0x709>
  402428:	48 c7 c2 ff ff ff ff 	mov    $0xffffffffffffffff,%rdx
  40242f:	4c 89 ef             	mov    %r13,%rdi
  402432:	b8 00 00 00 00       	mov    $0x0,%eax
  402437:	48 89 d1             	mov    %rdx,%rcx
  40243a:	f2 ae                	repnz scas %es:(%rdi),%al
  40243c:	48 f7 d1             	not    %rcx
  40243f:	48 89 ce             	mov    %rcx,%rsi
  402442:	4c 89 ff             	mov    %r15,%rdi
  402445:	48 89 d1             	mov    %rdx,%rcx
  402448:	f2 ae                	repnz scas %es:(%rdi),%al
  40244a:	48 f7 d1             	not    %rcx
  40244d:	49 89 c8             	mov    %rcx,%r8
  402450:	4c 89 f7             	mov    %r14,%rdi
  402453:	48 89 d1             	mov    %rdx,%rcx
  402456:	f2 ae                	repnz scas %es:(%rdi),%al
  402458:	49 29 c8             	sub    %rcx,%r8
  40245b:	48 8b 7c 24 08       	mov    0x8(%rsp),%rdi
  402460:	48 89 d1             	mov    %rdx,%rcx
  402463:	f2 ae                	repnz scas %es:(%rdi),%al
  402465:	49 29 c8             	sub    %rcx,%r8
  402468:	48 8d 44 76 fd       	lea    -0x3(%rsi,%rsi,2),%rax
  40246d:	49 8d 44 00 7b       	lea    0x7b(%r8,%rax,1),%rax
  402472:	48 3d 00 20 00 00    	cmp    $0x2000,%rax
  402478:	76 72                	jbe    4024ec <submitr+0x295>
  40247a:	48 b8 45 72 72 6f 72 	movabs $0x52203a726f727245,%rax
  402481:	3a 20 52 
  402484:	48 89 03             	mov    %rax,(%rbx)
  402487:	48 b8 65 73 75 6c 74 	movabs $0x747320746c757365,%rax
  40248e:	20 73 74 
  402491:	48 89 43 08          	mov    %rax,0x8(%rbx)
  402495:	48 b8 72 69 6e 67 20 	movabs $0x6f6f7420676e6972,%rax
  40249c:	74 6f 6f 
  40249f:	48 89 43 10          	mov    %rax,0x10(%rbx)
  4024a3:	48 b8 20 6c 61 72 67 	movabs $0x202e656772616c20,%rax
  4024aa:	65 2e 20 
  4024ad:	48 89 43 18          	mov    %rax,0x18(%rbx)
  4024b1:	48 b8 49 6e 63 72 65 	movabs $0x6573616572636e49,%rax
  4024b8:	61 73 65 
  4024bb:	48 89 43 20          	mov    %rax,0x20(%rbx)
  4024bf:	48 b8 20 53 55 42 4d 	movabs $0x5254494d42555320,%rax
  4024c6:	49 54 52 
  4024c9:	48 89 43 28          	mov    %rax,0x28(%rbx)
  4024cd:	48 b8 5f 4d 41 58 42 	movabs $0x46554258414d5f,%rax
  4024d4:	55 46 00 
  4024d7:	48 89 43 30          	mov    %rax,0x30(%rbx)
  4024db:	89 ef                	mov    %ebp,%edi
  4024dd:	e8 ce e7 ff ff       	callq  400cb0 <close@plt>
  4024e2:	b8 ff ff ff ff       	mov    $0xffffffff,%eax
  4024e7:	e9 74 04 00 00       	jmpq   402960 <submitr+0x709>
  4024ec:	48 8d b4 24 20 40 00 	lea    0x4020(%rsp),%rsi
  4024f3:	00 
  4024f4:	b9 00 04 00 00       	mov    $0x400,%ecx
  4024f9:	b8 00 00 00 00       	mov    $0x0,%eax
  4024fe:	48 89 f7             	mov    %rsi,%rdi
  402501:	f3 48 ab             	rep stos %rax,%es:(%rdi)
  402504:	4c 89 ef             	mov    %r13,%rdi
  402507:	e8 0f fb ff ff       	callq  40201b <urlencode>
  40250c:	85 c0                	test   %eax,%eax
  40250e:	0f 89 8a 00 00 00    	jns    40259e <submitr+0x347>
  402514:	48 b8 45 72 72 6f 72 	movabs $0x52203a726f727245,%rax
  40251b:	3a 20 52 
  40251e:	48 89 03             	mov    %rax,(%rbx)
  402521:	48 b8 65 73 75 6c 74 	movabs $0x747320746c757365,%rax
  402528:	20 73 74 
  40252b:	48 89 43 08          	mov    %rax,0x8(%rbx)
  40252f:	48 b8 72 69 6e 67 20 	movabs $0x6e6f6320676e6972,%rax
  402536:	63 6f 6e 
  402539:	48 89 43 10          	mov    %rax,0x10(%rbx)
  40253d:	48 b8 74 61 69 6e 73 	movabs $0x6e6120736e696174,%rax
  402544:	20 61 6e 
  402547:	48 89 43 18          	mov    %rax,0x18(%rbx)
  40254b:	48 b8 20 69 6c 6c 65 	movabs $0x6c6167656c6c6920,%rax
  402552:	67 61 6c 
  402555:	48 89 43 20          	mov    %rax,0x20(%rbx)
  402559:	48 b8 20 6f 72 20 75 	movabs $0x72706e7520726f20,%rax
  402560:	6e 70 72 
  402563:	48 89 43 28          	mov    %rax,0x28(%rbx)
  402567:	48 b8 69 6e 74 61 62 	movabs $0x20656c6261746e69,%rax
  40256e:	6c 65 20 
  402571:	48 89 43 30          	mov    %rax,0x30(%rbx)
  402575:	48 b8 63 68 61 72 61 	movabs $0x6574636172616863,%rax
  40257c:	63 74 65 
  40257f:	48 89 43 38          	mov    %rax,0x38(%rbx)
  402583:	66 c7 43 40 72 2e    	movw   $0x2e72,0x40(%rbx)
  402589:	c6 43 42 00          	movb   $0x0,0x42(%rbx)
  40258d:	89 ef                	mov    %ebp,%edi
  40258f:	e8 1c e7 ff ff       	callq  400cb0 <close@plt>
  402594:	b8 ff ff ff ff       	mov    $0xffffffff,%eax
  402599:	e9 c2 03 00 00       	jmpq   402960 <submitr+0x709>
  40259e:	4d 89 e1             	mov    %r12,%r9
  4025a1:	4c 8d 84 24 20 40 00 	lea    0x4020(%rsp),%r8
  4025a8:	00 
  4025a9:	4c 89 f9             	mov    %r15,%rcx
  4025ac:	4c 89 f2             	mov    %r14,%rdx
  4025af:	be f8 34 40 00       	mov    $0x4034f8,%esi
  4025b4:	48 8d bc 24 20 60 00 	lea    0x6020(%rsp),%rdi
  4025bb:	00 
  4025bc:	b8 00 00 00 00       	mov    $0x0,%eax
  4025c1:	e8 1a e8 ff ff       	callq  400de0 <sprintf@plt>
  4025c6:	48 8d bc 24 20 60 00 	lea    0x6020(%rsp),%rdi
  4025cd:	00 
  4025ce:	b8 00 00 00 00       	mov    $0x0,%eax
  4025d3:	48 c7 c1 ff ff ff ff 	mov    $0xffffffffffffffff,%rcx
  4025da:	f2 ae                	repnz scas %es:(%rdi),%al
  4025dc:	48 f7 d1             	not    %rcx
  4025df:	48 8d 51 ff          	lea    -0x1(%rcx),%rdx
  4025e3:	48 8d b4 24 20 60 00 	lea    0x6020(%rsp),%rsi
  4025ea:	00 
  4025eb:	89 ef                	mov    %ebp,%edi
  4025ed:	e8 ff fa ff ff       	callq  4020f1 <rio_writen>
  4025f2:	48 85 c0             	test   %rax,%rax
  4025f5:	79 6e                	jns    402665 <submitr+0x40e>
  4025f7:	48 b8 45 72 72 6f 72 	movabs $0x43203a726f727245,%rax
  4025fe:	3a 20 43 
  402601:	48 89 03             	mov    %rax,(%rbx)
  402604:	48 b8 6c 69 65 6e 74 	movabs $0x6e7520746e65696c,%rax
  40260b:	20 75 6e 
  40260e:	48 89 43 08          	mov    %rax,0x8(%rbx)
  402612:	48 b8 61 62 6c 65 20 	movabs $0x206f7420656c6261,%rax
  402619:	74 6f 20 
  40261c:	48 89 43 10          	mov    %rax,0x10(%rbx)
  402620:	48 b8 77 72 69 74 65 	movabs $0x6f74206574697277,%rax
  402627:	20 74 6f 
  40262a:	48 89 43 18          	mov    %rax,0x18(%rbx)
  40262e:	48 b8 20 74 68 65 20 	movabs $0x7365722065687420,%rax
  402635:	72 65 73 
  402638:	48 89 43 20          	mov    %rax,0x20(%rbx)
  40263c:	48 b8 75 6c 74 20 73 	movabs $0x7672657320746c75,%rax
  402643:	65 72 76 
  402646:	48 89 43 28          	mov    %rax,0x28(%rbx)
  40264a:	66 c7 43 30 65 72    	movw   $0x7265,0x30(%rbx)
  402650:	c6 43 32 00          	movb   $0x0,0x32(%rbx)
  402654:	89 ef                	mov    %ebp,%edi
  402656:	e8 55 e6 ff ff       	callq  400cb0 <close@plt>
  40265b:	b8 ff ff ff ff       	mov    $0xffffffff,%eax
  402660:	e9 fb 02 00 00       	jmpq   402960 <submitr+0x709>
  402665:	89 ee                	mov    %ebp,%esi
  402667:	48 8d bc 24 20 80 00 	lea    0x8020(%rsp),%rdi
  40266e:	00 
  40266f:	e8 6c f9 ff ff       	callq  401fe0 <rio_readinitb>
  402674:	ba 00 20 00 00       	mov    $0x2000,%edx
  402679:	48 8d b4 24 20 60 00 	lea    0x6020(%rsp),%rsi
  402680:	00 
  402681:	48 8d bc 24 20 80 00 	lea    0x8020(%rsp),%rdi
  402688:	00 
  402689:	e8 46 fb ff ff       	callq  4021d4 <rio_readlineb>
  40268e:	48 85 c0             	test   %rax,%rax
  402691:	7f 7d                	jg     402710 <submitr+0x4b9>
  402693:	48 b8 45 72 72 6f 72 	movabs $0x43203a726f727245,%rax
  40269a:	3a 20 43 
  40269d:	48 89 03             	mov    %rax,(%rbx)
  4026a0:	48 b8 6c 69 65 6e 74 	movabs $0x6e7520746e65696c,%rax
  4026a7:	20 75 6e 
  4026aa:	48 89 43 08          	mov    %rax,0x8(%rbx)
  4026ae:	48 b8 61 62 6c 65 20 	movabs $0x206f7420656c6261,%rax
  4026b5:	74 6f 20 
  4026b8:	48 89 43 10          	mov    %rax,0x10(%rbx)
  4026bc:	48 b8 72 65 61 64 20 	movabs $0x7269662064616572,%rax
  4026c3:	66 69 72 
  4026c6:	48 89 43 18          	mov    %rax,0x18(%rbx)
  4026ca:	48 b8 73 74 20 68 65 	movabs $0x6564616568207473,%rax
  4026d1:	61 64 65 
  4026d4:	48 89 43 20          	mov    %rax,0x20(%rbx)
  4026d8:	48 b8 72 20 66 72 6f 	movabs $0x72206d6f72662072,%rax
  4026df:	6d 20 72 
  4026e2:	48 89 43 28          	mov    %rax,0x28(%rbx)
  4026e6:	48 b8 65 73 75 6c 74 	movabs $0x657320746c757365,%rax
  4026ed:	20 73 65 
  4026f0:	48 89 43 30          	mov    %rax,0x30(%rbx)
  4026f4:	c7 43 38 72 76 65 72 	movl   $0x72657672,0x38(%rbx)
  4026fb:	c6 43 3c 00          	movb   $0x0,0x3c(%rbx)
  4026ff:	89 ef                	mov    %ebp,%edi
  402701:	e8 aa e5 ff ff       	callq  400cb0 <close@plt>
  402706:	b8 ff ff ff ff       	mov    $0xffffffff,%eax
  40270b:	e9 50 02 00 00       	jmpq   402960 <submitr+0x709>
  402710:	4c 8d 44 24 10       	lea    0x10(%rsp),%r8
  402715:	48 8d 8c 24 1c 20 00 	lea    0x201c(%rsp),%rcx
  40271c:	00 
  40271d:	48 8d 94 24 20 20 00 	lea    0x2020(%rsp),%rdx
  402724:	00 
  402725:	be 6f 35 40 00       	mov    $0x40356f,%esi
  40272a:	48 8d bc 24 20 60 00 	lea    0x6020(%rsp),%rdi
  402731:	00 
  402732:	b8 00 00 00 00       	mov    $0x0,%eax
  402737:	e8 34 e6 ff ff       	callq  400d70 <__isoc99_sscanf@plt>
  40273c:	e9 98 00 00 00       	jmpq   4027d9 <submitr+0x582>
  402741:	ba 00 20 00 00       	mov    $0x2000,%edx
  402746:	48 8d b4 24 20 60 00 	lea    0x6020(%rsp),%rsi
  40274d:	00 
  40274e:	48 8d bc 24 20 80 00 	lea    0x8020(%rsp),%rdi
  402755:	00 
  402756:	e8 79 fa ff ff       	callq  4021d4 <rio_readlineb>
  40275b:	48 85 c0             	test   %rax,%rax
  40275e:	7f 79                	jg     4027d9 <submitr+0x582>
  402760:	48 b8 45 72 72 6f 72 	movabs $0x43203a726f727245,%rax
  402767:	3a 20 43 
  40276a:	48 89 03             	mov    %rax,(%rbx)
  40276d:	48 b8 6c 69 65 6e 74 	movabs $0x6e7520746e65696c,%rax
  402774:	20 75 6e 
  402777:	48 89 43 08          	mov    %rax,0x8(%rbx)
  40277b:	48 b8 61 62 6c 65 20 	movabs $0x206f7420656c6261,%rax
  402782:	74 6f 20 
  402785:	48 89 43 10          	mov    %rax,0x10(%rbx)
  402789:	48 b8 72 65 61 64 20 	movabs $0x6165682064616572,%rax
  402790:	68 65 61 
  402793:	48 89 43 18          	mov    %rax,0x18(%rbx)
  402797:	48 b8 64 65 72 73 20 	movabs $0x6f72662073726564,%rax
  40279e:	66 72 6f 
  4027a1:	48 89 43 20          	mov    %rax,0x20(%rbx)
  4027a5:	48 b8 6d 20 74 68 65 	movabs $0x657220656874206d,%rax
  4027ac:	20 72 65 
  4027af:	48 89 43 28          	mov    %rax,0x28(%rbx)
  4027b3:	48 b8 73 75 6c 74 20 	movabs $0x72657320746c7573,%rax
  4027ba:	73 65 72 
  4027bd:	48 89 43 30          	mov    %rax,0x30(%rbx)
  4027c1:	c7 43 38 76 65 72 00 	movl   $0x726576,0x38(%rbx)
  4027c8:	89 ef                	mov    %ebp,%edi
  4027ca:	e8 e1 e4 ff ff       	callq  400cb0 <close@plt>
  4027cf:	b8 ff ff ff ff       	mov    $0xffffffff,%eax
  4027d4:	e9 87 01 00 00       	jmpq   402960 <submitr+0x709>
  4027d9:	0f b6 84 24 20 60 00 	movzbl 0x6020(%rsp),%eax
  4027e0:	00 
  4027e1:	83 e8 0d             	sub    $0xd,%eax
  4027e4:	75 15                	jne    4027fb <submitr+0x5a4>
  4027e6:	0f b6 84 24 21 60 00 	movzbl 0x6021(%rsp),%eax
  4027ed:	00 
  4027ee:	83 e8 0a             	sub    $0xa,%eax
  4027f1:	75 08                	jne    4027fb <submitr+0x5a4>
  4027f3:	0f b6 84 24 22 60 00 	movzbl 0x6022(%rsp),%eax
  4027fa:	00 
  4027fb:	85 c0                	test   %eax,%eax
  4027fd:	0f 85 3e ff ff ff    	jne    402741 <submitr+0x4ea>
  402803:	ba 00 20 00 00       	mov    $0x2000,%edx
  402808:	48 8d b4 24 20 60 00 	lea    0x6020(%rsp),%rsi
  40280f:	00 
  402810:	48 8d bc 24 20 80 00 	lea    0x8020(%rsp),%rdi
  402817:	00 
  402818:	e8 b7 f9 ff ff       	callq  4021d4 <rio_readlineb>
  40281d:	48 85 c0             	test   %rax,%rax
  402820:	0f 8f 83 00 00 00    	jg     4028a9 <submitr+0x652>
  402826:	48 b8 45 72 72 6f 72 	movabs $0x43203a726f727245,%rax
  40282d:	3a 20 43 
  402830:	48 89 03             	mov    %rax,(%rbx)
  402833:	48 b8 6c 69 65 6e 74 	movabs $0x6e7520746e65696c,%rax
  40283a:	20 75 6e 
  40283d:	48 89 43 08          	mov    %rax,0x8(%rbx)
  402841:	48 b8 61 62 6c 65 20 	movabs $0x206f7420656c6261,%rax
  402848:	74 6f 20 
  40284b:	48 89 43 10          	mov    %rax,0x10(%rbx)
  40284f:	48 b8 72 65 61 64 20 	movabs $0x6174732064616572,%rax
  402856:	73 74 61 
  402859:	48 89 43 18          	mov    %rax,0x18(%rbx)
  40285d:	48 b8 74 75 73 20 6d 	movabs $0x7373656d20737574,%rax
  402864:	65 73 73 
  402867:	48 89 43 20          	mov    %rax,0x20(%rbx)
  40286b:	48 b8 61 67 65 20 66 	movabs $0x6d6f726620656761,%rax
  402872:	72 6f 6d 
  402875:	48 89 43 28          	mov    %rax,0x28(%rbx)
  402879:	48 b8 20 72 65 73 75 	movabs $0x20746c7573657220,%rax
  402880:	6c 74 20 
  402883:	48 89 43 30          	mov    %rax,0x30(%rbx)
  402887:	c7 43 38 73 65 72 76 	movl   $0x76726573,0x38(%rbx)
  40288e:	66 c7 43 3c 65 72    	movw   $0x7265,0x3c(%rbx)
  402894:	c6 43 3e 00          	movb   $0x0,0x3e(%rbx)
  402898:	89 ef                	mov    %ebp,%edi
  40289a:	e8 11 e4 ff ff       	callq  400cb0 <close@plt>
  40289f:	b8 ff ff ff ff       	mov    $0xffffffff,%eax
  4028a4:	e9 b7 00 00 00       	jmpq   402960 <submitr+0x709>
  4028a9:	8b 94 24 1c 20 00 00 	mov    0x201c(%rsp),%edx
  4028b0:	81 fa c8 00 00 00    	cmp    $0xc8,%edx
  4028b6:	74 28                	je     4028e0 <submitr+0x689>
  4028b8:	48 8d 4c 24 10       	lea    0x10(%rsp),%rcx
  4028bd:	be 38 35 40 00       	mov    $0x403538,%esi
  4028c2:	48 89 df             	mov    %rbx,%rdi
  4028c5:	b8 00 00 00 00       	mov    $0x0,%eax
  4028ca:	e8 11 e5 ff ff       	callq  400de0 <sprintf@plt>
  4028cf:	89 ef                	mov    %ebp,%edi
  4028d1:	e8 da e3 ff ff       	callq  400cb0 <close@plt>
  4028d6:	b8 ff ff ff ff       	mov    $0xffffffff,%eax
  4028db:	e9 80 00 00 00       	jmpq   402960 <submitr+0x709>
  4028e0:	48 8d b4 24 20 60 00 	lea    0x6020(%rsp),%rsi
  4028e7:	00 
  4028e8:	48 89 df             	mov    %rbx,%rdi
  4028eb:	e8 50 e3 ff ff       	callq  400c40 <strcpy@plt>
  4028f0:	89 ef                	mov    %ebp,%edi
  4028f2:	e8 b9 e3 ff ff       	callq  400cb0 <close@plt>
  4028f7:	0f b6 03             	movzbl (%rbx),%eax
  4028fa:	83 e8 4f             	sub    $0x4f,%eax
  4028fd:	75 18                	jne    402917 <submitr+0x6c0>
  4028ff:	0f b6 53 01          	movzbl 0x1(%rbx),%edx
  402903:	83 ea 4b             	sub    $0x4b,%edx
  402906:	75 11                	jne    402919 <submitr+0x6c2>
  402908:	0f b6 53 02          	movzbl 0x2(%rbx),%edx
  40290c:	83 ea 0a             	sub    $0xa,%edx
  40290f:	75 08                	jne    402919 <submitr+0x6c2>
  402911:	0f b6 53 03          	movzbl 0x3(%rbx),%edx
  402915:	eb 02                	jmp    402919 <submitr+0x6c2>
  402917:	89 c2                	mov    %eax,%edx
  402919:	85 d2                	test   %edx,%edx
  40291b:	74 30                	je     40294d <submitr+0x6f6>
  40291d:	bf 80 35 40 00       	mov    $0x403580,%edi
  402922:	b9 05 00 00 00       	mov    $0x5,%ecx
  402927:	48 89 de             	mov    %rbx,%rsi
  40292a:	f3 a6                	repz cmpsb %es:(%rdi),%ds:(%rsi)
  40292c:	0f 97 c1             	seta   %cl
  40292f:	0f 92 c2             	setb   %dl
  402932:	38 d1                	cmp    %dl,%cl
  402934:	74 1e                	je     402954 <submitr+0x6fd>
  402936:	85 c0                	test   %eax,%eax
  402938:	75 0d                	jne    402947 <submitr+0x6f0>
  40293a:	0f b6 43 01          	movzbl 0x1(%rbx),%eax
  40293e:	83 e8 4b             	sub    $0x4b,%eax
  402941:	75 04                	jne    402947 <submitr+0x6f0>
  402943:	0f b6 43 02          	movzbl 0x2(%rbx),%eax
  402947:	85 c0                	test   %eax,%eax
  402949:	75 10                	jne    40295b <submitr+0x704>
  40294b:	eb 13                	jmp    402960 <submitr+0x709>
  40294d:	b8 00 00 00 00       	mov    $0x0,%eax
  402952:	eb 0c                	jmp    402960 <submitr+0x709>
  402954:	b8 00 00 00 00       	mov    $0x0,%eax
  402959:	eb 05                	jmp    402960 <submitr+0x709>
  40295b:	b8 ff ff ff ff       	mov    $0xffffffff,%eax
  402960:	48 81 c4 48 a0 00 00 	add    $0xa048,%rsp
  402967:	5b                   	pop    %rbx
  402968:	5d                   	pop    %rbp
  402969:	41 5c                	pop    %r12
  40296b:	41 5d                	pop    %r13
  40296d:	41 5e                	pop    %r14
  40296f:	41 5f                	pop    %r15
  402971:	c3                   	retq   

0000000000402972 <init_timeout>:
  402972:	53                   	push   %rbx
  402973:	89 fb                	mov    %edi,%ebx
  402975:	85 ff                	test   %edi,%edi
  402977:	74 1f                	je     402998 <init_timeout+0x26>
  402979:	85 ff                	test   %edi,%edi
  40297b:	79 05                	jns    402982 <init_timeout+0x10>
  40297d:	bb 00 00 00 00       	mov    $0x0,%ebx
  402982:	be f2 1f 40 00       	mov    $0x401ff2,%esi
  402987:	bf 0e 00 00 00       	mov    $0xe,%edi
  40298c:	e8 4f e3 ff ff       	callq  400ce0 <signal@plt>
  402991:	89 df                	mov    %ebx,%edi
  402993:	e8 08 e3 ff ff       	callq  400ca0 <alarm@plt>
  402998:	5b                   	pop    %rbx
  402999:	c3                   	retq   

000000000040299a <init_driver>:
  40299a:	55                   	push   %rbp
  40299b:	53                   	push   %rbx
  40299c:	48 83 ec 18          	sub    $0x18,%rsp
  4029a0:	48 89 fd             	mov    %rdi,%rbp
  4029a3:	be 01 00 00 00       	mov    $0x1,%esi
  4029a8:	bf 0d 00 00 00       	mov    $0xd,%edi
  4029ad:	e8 2e e3 ff ff       	callq  400ce0 <signal@plt>
  4029b2:	be 01 00 00 00       	mov    $0x1,%esi
  4029b7:	bf 1d 00 00 00       	mov    $0x1d,%edi
  4029bc:	e8 1f e3 ff ff       	callq  400ce0 <signal@plt>
  4029c1:	be 01 00 00 00       	mov    $0x1,%esi
  4029c6:	bf 1d 00 00 00       	mov    $0x1d,%edi
  4029cb:	e8 10 e3 ff ff       	callq  400ce0 <signal@plt>
  4029d0:	ba 00 00 00 00       	mov    $0x0,%edx
  4029d5:	be 01 00 00 00       	mov    $0x1,%esi
  4029da:	bf 02 00 00 00       	mov    $0x2,%edi
  4029df:	e8 2c e4 ff ff       	callq  400e10 <socket@plt>
  4029e4:	89 c3                	mov    %eax,%ebx
  4029e6:	85 c0                	test   %eax,%eax
  4029e8:	79 4f                	jns    402a39 <init_driver+0x9f>
  4029ea:	48 b8 45 72 72 6f 72 	movabs $0x43203a726f727245,%rax
  4029f1:	3a 20 43 
  4029f4:	48 89 45 00          	mov    %rax,0x0(%rbp)
  4029f8:	48 b8 6c 69 65 6e 74 	movabs $0x6e7520746e65696c,%rax
  4029ff:	20 75 6e 
  402a02:	48 89 45 08          	mov    %rax,0x8(%rbp)
  402a06:	48 b8 61 62 6c 65 20 	movabs $0x206f7420656c6261,%rax
  402a0d:	74 6f 20 
  402a10:	48 89 45 10          	mov    %rax,0x10(%rbp)
  402a14:	48 b8 63 72 65 61 74 	movabs $0x7320657461657263,%rax
  402a1b:	65 20 73 
  402a1e:	48 89 45 18          	mov    %rax,0x18(%rbp)
  402a22:	c7 45 20 6f 63 6b 65 	movl   $0x656b636f,0x20(%rbp)
  402a29:	66 c7 45 24 74 00    	movw   $0x74,0x24(%rbp)
  402a2f:	b8 ff ff ff ff       	mov    $0xffffffff,%eax
  402a34:	e9 23 01 00 00       	jmpq   402b5c <init_driver+0x1c2>
  402a39:	bf 60 30 40 00       	mov    $0x403060,%edi
  402a3e:	e8 ad e2 ff ff       	callq  400cf0 <gethostbyname@plt>
  402a43:	48 85 c0             	test   %rax,%rax
  402a46:	75 68                	jne    402ab0 <init_driver+0x116>
  402a48:	48 b8 45 72 72 6f 72 	movabs $0x44203a726f727245,%rax
  402a4f:	3a 20 44 
  402a52:	48 89 45 00          	mov    %rax,0x0(%rbp)
  402a56:	48 b8 4e 53 20 69 73 	movabs $0x6e7520736920534e,%rax
  402a5d:	20 75 6e 
  402a60:	48 89 45 08          	mov    %rax,0x8(%rbp)
  402a64:	48 b8 61 62 6c 65 20 	movabs $0x206f7420656c6261,%rax
  402a6b:	74 6f 20 
  402a6e:	48 89 45 10          	mov    %rax,0x10(%rbp)
  402a72:	48 b8 72 65 73 6f 6c 	movabs $0x2065766c6f736572,%rax
  402a79:	76 65 20 
  402a7c:	48 89 45 18          	mov    %rax,0x18(%rbp)
  402a80:	48 b8 73 65 72 76 65 	movabs $0x6120726576726573,%rax
  402a87:	72 20 61 
  402a8a:	48 89 45 20          	mov    %rax,0x20(%rbp)
  402a8e:	c7 45 28 64 64 72 65 	movl   $0x65726464,0x28(%rbp)
  402a95:	66 c7 45 2c 73 73    	movw   $0x7373,0x2c(%rbp)
  402a9b:	c6 45 2e 00          	movb   $0x0,0x2e(%rbp)
  402a9f:	89 df                	mov    %ebx,%edi
  402aa1:	e8 0a e2 ff ff       	callq  400cb0 <close@plt>
  402aa6:	b8 ff ff ff ff       	mov    $0xffffffff,%eax
  402aab:	e9 ac 00 00 00       	jmpq   402b5c <init_driver+0x1c2>
  402ab0:	48 c7 04 24 00 00 00 	movq   $0x0,(%rsp)
  402ab7:	00 
  402ab8:	48 c7 44 24 08 00 00 	movq   $0x0,0x8(%rsp)
  402abf:	00 00 
  402ac1:	66 c7 04 24 02 00    	movw   $0x2,(%rsp)
  402ac7:	48 8b 48 18          	mov    0x18(%rax),%rcx
  402acb:	48 63 50 14          	movslq 0x14(%rax),%rdx
  402acf:	48 8d 74 24 04       	lea    0x4(%rsp),%rsi
  402ad4:	48 8b 39             	mov    (%rcx),%rdi
  402ad7:	e8 b4 e2 ff ff       	callq  400d90 <bcopy@plt>
  402adc:	66 c7 44 24 02 47 26 	movw   $0x2647,0x2(%rsp)
  402ae3:	ba 10 00 00 00       	mov    $0x10,%edx
  402ae8:	48 89 e6             	mov    %rsp,%rsi
  402aeb:	89 df                	mov    %ebx,%edi
  402aed:	e8 0e e3 ff ff       	callq  400e00 <connect@plt>
  402af2:	85 c0                	test   %eax,%eax
  402af4:	79 50                	jns    402b46 <init_driver+0x1ac>
  402af6:	48 b8 45 72 72 6f 72 	movabs $0x55203a726f727245,%rax
  402afd:	3a 20 55 
  402b00:	48 89 45 00          	mov    %rax,0x0(%rbp)
  402b04:	48 b8 6e 61 62 6c 65 	movabs $0x6f7420656c62616e,%rax
  402b0b:	20 74 6f 
  402b0e:	48 89 45 08          	mov    %rax,0x8(%rbp)
  402b12:	48 b8 20 63 6f 6e 6e 	movabs $0x7463656e6e6f6320,%rax
  402b19:	65 63 74 
  402b1c:	48 89 45 10          	mov    %rax,0x10(%rbp)
  402b20:	48 b8 20 74 6f 20 73 	movabs $0x76726573206f7420,%rax
  402b27:	65 72 76 
  402b2a:	48 89 45 18          	mov    %rax,0x18(%rbp)
  402b2e:	66 c7 45 20 65 72    	movw   $0x7265,0x20(%rbp)
  402b34:	c6 45 22 00          	movb   $0x0,0x22(%rbp)
  402b38:	89 df                	mov    %ebx,%edi
  402b3a:	e8 71 e1 ff ff       	callq  400cb0 <close@plt>
  402b3f:	b8 ff ff ff ff       	mov    $0xffffffff,%eax
  402b44:	eb 16                	jmp    402b5c <init_driver+0x1c2>
  402b46:	89 df                	mov    %ebx,%edi
  402b48:	e8 63 e1 ff ff       	callq  400cb0 <close@plt>
  402b4d:	66 c7 45 00 4f 4b    	movw   $0x4b4f,0x0(%rbp)
  402b53:	c6 45 02 00          	movb   $0x0,0x2(%rbp)
  402b57:	b8 00 00 00 00       	mov    $0x0,%eax
  402b5c:	48 83 c4 18          	add    $0x18,%rsp
  402b60:	5b                   	pop    %rbx
  402b61:	5d                   	pop    %rbp
  402b62:	c3                   	retq   

0000000000402b63 <driver_post>:
  402b63:	53                   	push   %rbx
  402b64:	48 83 ec 10          	sub    $0x10,%rsp
  402b68:	4c 89 cb             	mov    %r9,%rbx
  402b6b:	45 85 c0             	test   %r8d,%r8d
  402b6e:	74 22                	je     402b92 <driver_post+0x2f>
  402b70:	48 89 ce             	mov    %rcx,%rsi
  402b73:	bf 85 35 40 00       	mov    $0x403585,%edi
  402b78:	b8 00 00 00 00       	mov    $0x0,%eax
  402b7d:	e8 fe e0 ff ff       	callq  400c80 <printf@plt>
  402b82:	66 c7 03 4f 4b       	movw   $0x4b4f,(%rbx)
  402b87:	c6 43 02 00          	movb   $0x0,0x2(%rbx)
  402b8b:	b8 00 00 00 00       	mov    $0x0,%eax
  402b90:	eb 39                	jmp    402bcb <driver_post+0x68>
  402b92:	48 85 ff             	test   %rdi,%rdi
  402b95:	74 26                	je     402bbd <driver_post+0x5a>
  402b97:	80 3f 00             	cmpb   $0x0,(%rdi)
  402b9a:	74 21                	je     402bbd <driver_post+0x5a>
  402b9c:	4c 89 0c 24          	mov    %r9,(%rsp)
  402ba0:	49 89 c9             	mov    %rcx,%r9
  402ba3:	49 89 d0             	mov    %rdx,%r8
  402ba6:	48 89 f9             	mov    %rdi,%rcx
  402ba9:	48 89 f2             	mov    %rsi,%rdx
  402bac:	be 26 47 00 00       	mov    $0x4726,%esi
  402bb1:	bf 60 30 40 00       	mov    $0x403060,%edi
  402bb6:	e8 9c f6 ff ff       	callq  402257 <submitr>
  402bbb:	eb 0e                	jmp    402bcb <driver_post+0x68>
  402bbd:	66 c7 03 4f 4b       	movw   $0x4b4f,(%rbx)
  402bc2:	c6 43 02 00          	movb   $0x0,0x2(%rbx)
  402bc6:	b8 00 00 00 00       	mov    $0x0,%eax
  402bcb:	48 83 c4 10          	add    $0x10,%rsp
  402bcf:	5b                   	pop    %rbx
  402bd0:	c3                   	retq   

0000000000402bd1 <check>:
  402bd1:	89 f8                	mov    %edi,%eax
  402bd3:	c1 e8 1c             	shr    $0x1c,%eax
  402bd6:	85 c0                	test   %eax,%eax
  402bd8:	74 1d                	je     402bf7 <check+0x26>
  402bda:	b9 00 00 00 00       	mov    $0x0,%ecx
  402bdf:	eb 0b                	jmp    402bec <check+0x1b>
  402be1:	89 f8                	mov    %edi,%eax
  402be3:	d3 e8                	shr    %cl,%eax
  402be5:	3c 0a                	cmp    $0xa,%al
  402be7:	74 14                	je     402bfd <check+0x2c>
  402be9:	83 c1 08             	add    $0x8,%ecx
  402bec:	83 f9 1f             	cmp    $0x1f,%ecx
  402bef:	7e f0                	jle    402be1 <check+0x10>
  402bf1:	b8 01 00 00 00       	mov    $0x1,%eax
  402bf6:	c3                   	retq   
  402bf7:	b8 00 00 00 00       	mov    $0x0,%eax
  402bfc:	c3                   	retq   
  402bfd:	b8 00 00 00 00       	mov    $0x0,%eax
  402c02:	c3                   	retq   

0000000000402c03 <gencookie>:
  402c03:	53                   	push   %rbx
  402c04:	83 c7 01             	add    $0x1,%edi
  402c07:	e8 14 e0 ff ff       	callq  400c20 <srandom@plt>
  402c0c:	e8 3f e1 ff ff       	callq  400d50 <random@plt>
  402c11:	89 c3                	mov    %eax,%ebx
  402c13:	89 c7                	mov    %eax,%edi
  402c15:	e8 b7 ff ff ff       	callq  402bd1 <check>
  402c1a:	85 c0                	test   %eax,%eax
  402c1c:	74 ee                	je     402c0c <gencookie+0x9>
  402c1e:	89 d8                	mov    %ebx,%eax
  402c20:	5b                   	pop    %rbx
  402c21:	c3                   	retq   
  402c22:	66 2e 0f 1f 84 00 00 	nopw   %cs:0x0(%rax,%rax,1)
  402c29:	00 00 00 
  402c2c:	0f 1f 40 00          	nopl   0x0(%rax)

0000000000402c30 <__libc_csu_init>:
  402c30:	41 57                	push   %r15
  402c32:	41 89 ff             	mov    %edi,%r15d
  402c35:	41 56                	push   %r14
  402c37:	49 89 f6             	mov    %rsi,%r14
  402c3a:	41 55                	push   %r13
  402c3c:	49 89 d5             	mov    %rdx,%r13
  402c3f:	41 54                	push   %r12
  402c41:	4c 8d 25 c8 21 20 00 	lea    0x2021c8(%rip),%r12        # 604e10 <__frame_dummy_init_array_entry>
  402c48:	55                   	push   %rbp
  402c49:	48 8d 2d c8 21 20 00 	lea    0x2021c8(%rip),%rbp        # 604e18 <__init_array_end>
  402c50:	53                   	push   %rbx
  402c51:	4c 29 e5             	sub    %r12,%rbp
  402c54:	31 db                	xor    %ebx,%ebx
  402c56:	48 c1 fd 03          	sar    $0x3,%rbp
  402c5a:	48 83 ec 08          	sub    $0x8,%rsp
  402c5e:	e8 65 df ff ff       	callq  400bc8 <_init>
  402c63:	48 85 ed             	test   %rbp,%rbp
  402c66:	74 1e                	je     402c86 <__libc_csu_init+0x56>
  402c68:	0f 1f 84 00 00 00 00 	nopl   0x0(%rax,%rax,1)
  402c6f:	00 
  402c70:	4c 89 ea             	mov    %r13,%rdx
  402c73:	4c 89 f6             	mov    %r14,%rsi
  402c76:	44 89 ff             	mov    %r15d,%edi
  402c79:	41 ff 14 dc          	callq  *(%r12,%rbx,8)
  402c7d:	48 83 c3 01          	add    $0x1,%rbx
  402c81:	48 39 eb             	cmp    %rbp,%rbx
  402c84:	75 ea                	jne    402c70 <__libc_csu_init+0x40>
  402c86:	48 83 c4 08          	add    $0x8,%rsp
  402c8a:	5b                   	pop    %rbx
  402c8b:	5d                   	pop    %rbp
  402c8c:	41 5c                	pop    %r12
  402c8e:	41 5d                	pop    %r13
  402c90:	41 5e                	pop    %r14
  402c92:	41 5f                	pop    %r15
  402c94:	c3                   	retq   
  402c95:	90                   	nop
  402c96:	66 2e 0f 1f 84 00 00 	nopw   %cs:0x0(%rax,%rax,1)
  402c9d:	00 00 00 

0000000000402ca0 <__libc_csu_fini>:
  402ca0:	f3 c3                	repz retq 

Disassembly of section .fini:

0000000000402ca4 <_fini>:
  402ca4:	48 83 ec 08          	sub    $0x8,%rsp
  402ca8:	48 83 c4 08          	add    $0x8,%rsp
  402cac:	c3                   	retq   
