0000000000401108 <phase_5>:
  401108:       53                      push   %rbx
  401109:       48 83 ec 10             sub    $0x10,%rsp
  40110d:       48 89 fb                mov    %rdi,%rbx
  401110:       e8 a1 02 00 00          callq  4013b6 <string_length>
  401115:       83 f8 06                cmp    $0x6,%eax
  401118:       75 3f                   jne    401159 <phase_5+0x51>
  40111a:       b8 00 00 00 00          mov    $0x0,%eax
  40111f:       0f b6 14 03             movzbl (%rbx,%rax,1),%edx
  401123:       83 e2 0f                and    $0xf,%edx
  401126:       0f b6 92 90 27 40 00    movzbl 0x402790(%rdx),%edx
  40112d:       88 54 04 09             mov    %dl,0x9(%rsp,%rax,1)
  401131:       48 83 c0 01             add    $0x1,%rax
  401135:       48 83 f8 06             cmp    $0x6,%rax
  401139:       75 e4                   jne    40111f <phase_5+0x17>
  40113b:       c6 44 24 0f 00          movb   $0x0,0xf(%rsp)
  401140:       be a0 27 40 00          mov    $0x4027a0,%esi
  401145:       48 8d 7c 24 09          lea    0x9(%rsp),%rdi
  40114a:       e8 80 02 00 00          callq  4013cf <strings_not_equal>
  40114f:       85 c0                   test   %eax,%eax
  401151:       75 0d                   jne    401160 <phase_5+0x58>
  401153:       48 83 c4 10             add    $0x10,%rsp
  401157:       5b                      pop    %rbx
  401158:       c3                      retq
  401159:       e8 76 05 00 00          callq  4016d4 <explode_bomb>
  40115e:       eb ba                   jmp    40111a <phase_5+0x12>
  401160:       e8 6f 05 00 00          callq  4016d4 <explode_bomb>
  401165:       eb ec                   jmp    401153 <phase_5+0x4b>

00000000004013b6 <string_length>:
  4013b6:       b8 00 00 00 00          mov    $0x0,%eax
  4013bb:       80 3f 00                cmpb   $0x0,(%rdi)
  4013be:       74 0e                   je     4013ce <string_length+0x18>
  4013c0:       48 83 c7 01             add    $0x1,%rdi
  4013c4:       83 c0 01                add    $0x1,%eax
  4013c7:       3d 10 27 00 00          cmp    $0x2710,%eax
  4013cc:       75 ed                   jne    4013bb <string_length+0x5>
  4013ce:       c3                      retq

00000000004013cf <strings_not_equal>:
  4013cf:       41 54                   push   %r12
  4013d1:       55                      push   %rbp
  4013d2:       53                      push   %rbx
  4013d3:       48 89 fb                mov    %rdi,%rbx
  4013d6:       48 89 f5                mov    %rsi,%rbp
  4013d9:       e8 d8 ff ff ff          callq  4013b6 <string_length>
  4013de:       41 89 c4                mov    %eax,%r12d
  4013e1:       48 89 ef                mov    %rbp,%rdi
  4013e4:       e8 cd ff ff ff          callq  4013b6 <string_length>
  4013e9:       89 c2                   mov    %eax,%edx
  4013eb:       b8 01 00 00 00          mov    $0x1,%eax
  4013f0:       41 39 d4                cmp    %edx,%r12d
  4013f3:       75 31                   jne    401426 <strings_not_equal+0x57>
  4013f5:       0f b6 13                movzbl (%rbx),%edx
  4013f8:       84 d2                   test   %dl,%dl
  4013fa:       74 1e                   je     40141a <strings_not_equal+0x4b>
  4013fc:       b8 00 00 00 00          mov    $0x0,%eax
  401401:       38 54 05 00             cmp    %dl,0x0(%rbp,%rax,1)
  401405:       75 1a                   jne    401421 <strings_not_equal+0x52>
  401407:       48 83 c0 01             add    $0x1,%rax
  40140b:       0f b6 14 03             movzbl (%rbx,%rax,1),%edx
  40140f:       84 d2                   test   %dl,%dl
  401411:       75 ee                   jne    401401 <strings_not_equal+0x32>
  401413:       b8 00 00 00 00          mov    $0x0,%eax
  401418:       eb 0c                   jmp    401426 <strings_not_equal+0x57>
  40141a:       b8 00 00 00 00          mov    $0x0,%eax
  40141f:       eb 05                   jmp    401426 <strings_not_equal+0x57>
  401421:       b8 01 00 00 00          mov    $0x1,%eax
  401426:       5b                      pop    %rbx
  401427:       5d                      pop    %rbp
  401428:       41 5c                   pop    %r12
  40142a:       c3                      retq
